ccopy_reg
_reconstructor
p1
(ctree
State
p2
c__builtin__
object
p3
NtRp4
(dp5
S'parent'
p6
NsS'max_utility'
p7
Finf
sS'actions'
p8
ccollections
defaultdict
p9
(c__builtin__
dict
p10
tRp11
I0
(dp12
g1
(ctree
Action
p13
g3
NtRp14
(dp15
S'h'
I0
sS'rotation'
p16
I0
sS'piece'
p17
I0
sS'board'
p18
g1
(ctree
Board
p19
g3
NtRp20
(dp21
S'_height'
p22
I4
sS'_width'
p23
I4
sbsS'w'
I0
sbg1
(g2
g3
NtRp24
(dp25
g6
g4
sg7
I-495
sg8
g9
(g10
tRp26
I6
(dp27
g1
(g13
g3
NtRp28
(dp29
S'h'
I0
sg16
I1
sg17
I6
sg18
g1
(g19
g3
NtRp30
(dp31
g22
I4
sg23
I4
sbsS'w'
I1
sbg1
(g2
g3
NtRp32
(dp33
g6
g24
sg7
I-495
sg8
NsS'_bhash'
p34
L35051L
sS'utility'
p35
I-495
sg18
g1
(g19
g3
NtRp36
(dp37
g22
I4
sg23
I4
sbsbsssg34
L34952L
sg35
I47
sg18
g36
sbsg1
(g13
g3
NtRp38
(dp39
S'h'
I0
sg16
I0
sg17
I0
sg18
g1
(g19
g3
NtRp40
(dp41
g22
I4
sg23
I4
sbsS'w'
I1
sbg1
(g2
g3
NtRp42
(dp43
g6
g4
sg7
I-203
sg8
g9
(g10
tRp44
I6
(dp45
g1
(g13
g3
NtRp46
(dp47
S'h'
I0
sg16
I0
sg17
I6
sg18
g1
(g19
g3
NtRp48
(dp49
g22
I4
sg23
I4
sbsS'w'
I2
sbg1
(g2
g3
NtRp50
(dp51
g6
g42
sg7
I-203
sg8
Nsg34
L17782L
sg35
I-203
sg18
g36
sbsssg34
L17476L
sg35
I7
sg18
g36
sbsg1
(g13
g3
NtRp52
(dp53
S'h'
I0
sg16
I0
sg17
I0
sg18
g40
sS'w'
I2
sbg1
(g2
g3
NtRp54
(dp55
g6
g4
sg7
I-203
sg8
g9
(g10
tRp56
I6
(dp57
g1
(g13
g3
NtRp58
(dp59
S'h'
I0
sg16
I0
sg17
I6
sg18
g1
(g19
g3
NtRp60
(dp61
g22
I4
sg23
I4
sbsS'w'
I0
sbg1
(g2
g3
NtRp62
(dp63
g6
g54
sg7
I-203
sg8
Nsg34
L9962L
sg35
I-203
sg18
g36
sbsssg34
L8738L
sg35
I7
sg18
g36
sbsg1
(g13
g3
NtRp64
(dp65
S'h'
I0
sg16
I0
sg17
I0
sg18
g40
sS'w'
I3
sbg1
(g2
g3
NtRp66
(dp67
g6
g4
sg7
I-495
sg8
g9
(g10
tRp68
I6
(dp69
g1
(g13
g3
NtRp70
(dp71
S'h'
I0
sg16
I1
sg17
I6
sg18
g1
(g19
g3
NtRp72
(dp73
g22
I4
sg23
I4
sbsS'w'
I0
sbg1
(g2
g3
NtRp74
(dp75
g6
g66
sg7
I-495
sg8
Nsg34
L4567L
sg35
I-495
sg18
g36
sbsssg34
L4369L
sg35
I47
sg18
g36
sbsg1
(g13
g3
NtRp76
(dp77
S'h'
I0
sg16
I1
sg17
I0
sg18
g1
(g19
g3
NtRp78
(dp79
g22
I4
sg23
I4
sbsS'w'
I0
sbg1
(g2
g3
NtRp80
(dp81
g6
g4
sg7
I-594
sg8
g9
(g10
tRp82
I6
(dp83
g1
(g13
g3
NtRp84
(dp85
S'h'
I1
sg16
I1
sg17
I6
sg18
g1
(g19
g3
NtRp86
(dp87
g22
I4
sg23
I4
sbsS'w'
I1
sbg1
(g2
g3
NtRp88
(dp89
g6
g80
sg7
I-594
sg8
Nsg34
L1599L
sg35
I-594
sg18
g36
sbsssg34
L15L
sg35
I-934
sg18
g36
sbssI1
(dp90
g1
(g13
g3
NtRp91
(dp92
S'h'
I0
sg16
I0
sg17
I1
sg18
g1
(g19
g3
NtRp93
(dp94
g22
I4
sg23
I4
sbsS'w'
I0
sbg1
(g2
g3
NtRp95
(dp96
g6
g4
sg7
I-112
sg8
g9
(g10
tRp97
I6
(dp98
g1
(g13
g3
NtRp99
(dp100
S'h'
I2
sg16
I1
sg17
I6
sg18
g1
(g19
g3
NtRp101
(dp102
g22
I4
sg23
I4
sbsS'w'
I0
sbg1
(g2
g3
NtRp103
(dp104
g6
g95
sg7
I-112
sg8
Nsg34
L50892L
sg35
I-112
sg18
g36
sbsssg34
L204L
sg35
I-292
sg18
g36
sbsg1
(g13
g3
NtRp105
(dp106
S'h'
I0
sg16
I0
sg17
I1
sg18
g20
sS'w'
I1
sbg1
(g2
g3
NtRp107
(dp108
g6
g4
sg7
I-132
sg8
g9
(g10
tRp109
I6
(dp110
g1
(g13
g3
NtRp111
(dp112
S'h'
I2
sg16
I1
sg17
I6
sg18
g1
(g19
g3
NtRp113
(dp114
g22
I4
sg23
I4
sbsS'w'
I1
sbg1
(g2
g3
NtRp115
(dp116
g6
g107
sg7
I-132
sg8
Nsg34
L25446L
sg35
I-132
sg18
g36
sbsssg34
L102L
sg35
I-312
sg18
g36
sbsg1
(g13
g3
NtRp117
(dp118
S'h'
I0
sg16
I0
sg17
I1
sg18
g1
(g19
g3
NtRp119
(dp120
g22
I4
sg23
I4
sbsS'w'
I2
sbg1
(g2
g3
NtRp121
(dp122
g6
g4
sg7
I-30
sg8
g9
(g10
tRp123
I6
(dp124
g1
(g13
g3
NtRp125
(dp126
S'h'
I2
sg16
I1
sg17
I6
sg18
g1
(g19
g3
NtRp127
(dp128
g22
I4
sg23
I4
sbsS'w'
I1
sbg1
(g2
g3
NtRp129
(dp130
g6
g121
sg7
I-30
sg8
Nsg34
L25395L
sg35
I-30
sg18
g36
sbsssg34
L51L
sg35
I-292
sg18
g36
sbssI2
(dp131
g1
(g13
g3
NtRp132
(dp133
S'h'
I0
sg16
I0
sg17
I2
sg18
g1
(g19
g3
NtRp134
(dp135
g22
I4
sg23
I4
sbsS'w'
I0
sbg1
(g2
g3
NtRp136
(dp137
g6
g4
sg7
I-20
sg8
g9
(g10
tRp138
I6
(dp139
g1
(g13
g3
NtRp140
(dp141
S'h'
I2
sg16
I1
sg17
I6
sg18
g1
(g19
g3
NtRp142
(dp143
g22
I4
sg23
I4
sbsS'w'
I0
sbg1
(g2
g3
NtRp144
(dp145
g6
g136
sg7
I-20
sg8
Nsg34
L52936L
sg35
I-20
sg18
g36
sbsssg34
L2248L
sg35
I-204
sg18
g36
sbsg1
(g13
g3
NtRp146
(dp147
S'h'
I0
sg16
I0
sg17
I2
sg18
g1
(g19
g3
NtRp148
(dp149
g22
I4
sg23
I4
sbsS'w'
I1
sbg1
(g2
g3
NtRp150
(dp151
g6
g4
sg7
I-50
sg8
g9
(g10
tRp152
I6
(dp153
g1
(g13
g3
NtRp154
(dp155
S'h'
I2
sg16
I1
sg17
I6
sg18
g1
(g19
g3
NtRp156
(dp157
g22
I4
sg23
I4
sbsS'w'
I1
sbg1
(g2
g3
NtRp158
(dp159
g6
g150
sg7
I-50
sg8
Nsg34
L26468L
sg35
I-50
sg18
g36
sbsssg34
L1124L
sg35
I-234
sg18
g36
sbsg1
(g13
g3
NtRp160
(dp161
S'h'
I0
sg16
I0
sg17
I2
sg18
g1
(g19
g3
NtRp162
(dp163
g22
I4
sg23
I4
sbsS'w'
I2
sbg1
(g2
g3
NtRp164
(dp165
g6
g4
sg7
I-434
sg8
g9
(g10
tRp166
I6
(dp167
g1
(g13
g3
NtRp168
(dp169
S'h'
I0
sg16
I0
sg17
I6
sg18
g1
(g19
g3
NtRp170
(dp171
g22
I4
sg23
I4
sbsS'w'
I0
sbg1
(g2
g3
NtRp172
(dp173
g6
g164
sg7
I-434
sg8
Nsg34
L1786L
sg35
I-434
sg18
g36
sbsssg34
L562L
sg35
I-224
sg18
g36
sbsg1
(g13
g3
NtRp174
(dp175
S'h'
I0
sg16
I1
sg17
I2
sg18
g1
(g19
g3
NtRp176
(dp177
g22
I4
sg23
I4
sbsS'w'
I0
sbg1
(g2
g3
NtRp178
(dp179
g6
g4
sg7
I-284
sg8
g9
(g10
tRp180
I6
(dp181
g1
(g13
g3
NtRp182
(dp183
S'h'
I2
sg16
I1
sg17
I6
sg18
g1
(g19
g3
NtRp184
(dp185
g22
I4
sg23
I4
sbsS'w'
I0
sbg1
(g2
g3
NtRp186
(dp187
g6
g178
sg7
I-284
sg8
Nsg34
L50766L
sg35
I-284
sg18
g36
sbsssg34
L78L
sg35
I-624
sg18
g36
sbsg1
(g13
g3
NtRp188
(dp189
S'h'
I0
sg16
I1
sg17
I2
sg18
g1
(g19
g3
NtRp190
(dp191
g22
I4
sg23
I4
sbsS'w'
I1
sbg1
(g2
g3
NtRp192
(dp193
g6
g4
sg7
I-284
sg8
g9
(g10
tRp194
I6
(dp195
g1
(g13
g3
NtRp196
(dp197
S'h'
I2
sg16
I1
sg17
I6
sg18
g1
(g19
g3
NtRp198
(dp199
g22
I4
sg23
I4
sbsS'w'
I1
sbg1
(g2
g3
NtRp200
(dp201
g6
g192
sg7
I-284
sg8
Nsg34
L25383L
sg35
I-284
sg18
g36
sbsssg34
L39L
sg35
I-624
sg18
g36
sbsg1
(g13
g3
NtRp202
(dp203
S'h'
I0
sg16
I2
sg17
I2
sg18
g1
(g19
g3
NtRp204
(dp205
g22
I4
sg23
I4
sbsS'w'
I0
sbg1
(g2
g3
NtRp206
(dp207
g6
g4
sg7
I-202
sg8
g9
(g10
tRp208
I6
(dp209
g1
(g13
g3
NtRp210
(dp211
S'h'
I2
sg16
I1
sg17
I6
sg18
g1
(g19
g3
NtRp212
(dp213
g22
I4
sg23
I4
sbsS'w'
I1
sbg1
(g2
g3
NtRp214
(dp215
g6
g206
sg7
I-202
sg8
Nsg34
L26564L
sg35
I-202
sg18
g36
sbsssg34
L1220L
sg35
I-224
sg18
g36
sbsg1
(g13
g3
NtRp216
(dp217
S'h'
I0
sg16
I2
sg17
I2
sg18
g1
(g19
g3
NtRp218
(dp219
g22
I4
sg23
I4
sbsS'w'
I1
sbg1
(g2
g3
NtRp220
(dp221
g6
g4
sg7
I-121
sg8
g9
(g10
tRp222
I6
(dp223
g1
(g13
g3
NtRp224
(dp225
S'h'
I1
sg16
I0
sg17
I6
sg18
g1
(g19
g3
NtRp226
(dp227
g22
I4
sg23
I4
sbsS'w'
I0
sbg1
(g2
g3
NtRp228
(dp229
g6
g220
sg7
I-121
sg8
Nsg34
L20194L
sg35
I-121
sg18
g36
sbsssg34
L610L
sg35
I-234
sg18
g36
sbsg1
(g13
g3
NtRp230
(dp231
S'h'
I0
sg16
I2
sg17
I2
sg18
g1
(g19
g3
NtRp232
(dp233
g22
I4
sg23
I4
sbsS'w'
I2
sbg1
(g2
g3
NtRp234
(dp235
g6
g4
sg7
I-102
sg8
g9
(g10
tRp236
I6
(dp237
g1
(g13
g3
NtRp238
(dp239
S'h'
I2
sg16
I1
sg17
I6
sg18
g1
(g19
g3
NtRp240
(dp241
g22
I4
sg23
I4
sbsS'w'
I0
sbg1
(g2
g3
NtRp242
(dp243
g6
g234
sg7
I-102
sg8
Nsg34
L50993L
sg35
I-102
sg18
g36
sbsssg34
L305L
sg35
I-204
sg18
g36
sbsg1
(g13
g3
NtRp244
(dp245
S'h'
I0
sg16
I3
sg17
I2
sg18
g1
(g19
g3
NtRp246
(dp247
g22
I4
sg23
I4
sbsS'w'
I0
sbg1
(g2
g3
NtRp248
(dp249
g6
g4
sg7
I-284
sg8
g9
(g10
tRp250
I6
(dp251
g1
(g13
g3
NtRp252
(dp253
S'h'
I2
sg16
I1
sg17
I6
sg18
g1
(g19
g3
NtRp254
(dp255
g22
I4
sg23
I4
sbsS'w'
I1
sbg1
(g2
g3
NtRp256
(dp257
g6
g248
sg7
I-284
sg8
Nsg34
L25572L
sg35
I-284
sg18
g36
sbsssg34
L228L
sg35
I-464
sg18
g36
sbsg1
(g13
g3
NtRp258
(dp259
S'h'
I0
sg16
I3
sg17
I2
sg18
g1
(g19
g3
NtRp260
(dp261
g22
I4
sg23
I4
sbsS'w'
I1
sbg1
(g2
g3
NtRp262
(dp263
g6
g4
sg7
I-122
sg8
g9
(g10
tRp264
I6
(dp265
g1
(g13
g3
NtRp266
(dp267
S'h'
I2
sg16
I1
sg17
I6
sg18
g1
(g19
g3
NtRp268
(dp269
g22
I4
sg23
I4
sbsS'w'
I1
sbg1
(g2
g3
NtRp270
(dp271
g6
g262
sg7
I-122
sg8
Nsg34
L25458L
sg35
I-122
sg18
g36
sbsssg34
L114L
sg35
I-464
sg18
g36
sbssI3
(dp272
g1
(g13
g3
NtRp273
(dp274
S'h'
I0
sg16
I2
sg17
I3
sg18
g1
(g19
g3
NtRp275
(dp276
g22
I4
sg23
I4
sbsS'w'
I0
sbg1
(g2
g3
NtRp277
(dp278
g6
g4
sg7
I-282
sg8
g9
(g10
tRp279
I6
(dp280
g1
(g13
g3
NtRp281
(dp282
S'h'
I2
sg16
I1
sg17
I6
sg18
g1
(g19
g3
NtRp283
(dp284
g22
I4
sg23
I4
sbsS'w'
I1
sbg1
(g2
g3
NtRp285
(dp286
g6
g277
sg7
I-282
sg8
Nsg34
L26444L
sg35
I-282
sg18
g36
sbsssg34
L1100L
sg35
I-304
sg18
g36
sbsg1
(g13
g3
NtRp287
(dp288
S'h'
I0
sg16
I2
sg17
I3
sg18
g1
(g19
g3
NtRp289
(dp290
g22
I4
sg23
I4
sbsS'w'
I1
sbg1
(g2
g3
NtRp291
(dp292
g6
g4
sg7
I-280
sg8
g9
(g10
tRp293
I6
(dp294
g1
(g13
g3
NtRp295
(dp296
S'h'
I0
sg16
I0
sg17
I6
sg18
g1
(g19
g3
NtRp297
(dp298
g22
I4
sg23
I4
sbsS'w'
I0
sbg1
(g2
g3
NtRp299
(dp300
g6
g291
sg7
I-280
sg8
Nsg34
L1774L
sg35
I-280
sg18
g36
sbsssg34
L550L
sg35
I-314
sg18
g36
sbsg1
(g13
g3
NtRp301
(dp302
S'h'
I0
sg16
I2
sg17
I3
sg18
g1
(g19
g3
NtRp303
(dp304
g22
I4
sg23
I4
sbsS'w'
I2
sbg1
(g2
g3
NtRp305
(dp306
g6
g4
sg7
I-344
sg8
g9
(g10
tRp307
I6
(dp308
g1
(g13
g3
NtRp309
(dp310
S'h'
I1
sg16
I1
sg17
I6
sg18
g1
(g19
g3
NtRp311
(dp312
g22
I4
sg23
I4
sbsS'w'
I0
sbg1
(g2
g3
NtRp313
(dp314
g6
g305
sg7
I-344
sg8
Nsg34
L3443L
sg35
I-344
sg18
g36
sbsssg34
L275L
sg35
I-284
sg18
g36
sbsg1
(g13
g3
NtRp315
(dp316
S'h'
I0
sg16
I3
sg17
I3
sg18
g1
(g19
g3
NtRp317
(dp318
g22
I4
sg23
I4
sbsS'w'
I0
sbg1
(g2
g3
NtRp319
(dp320
g6
g4
sg7
I-284
sg8
g9
(g10
tRp321
I6
(dp322
g1
(g13
g3
NtRp323
(dp324
S'h'
I2
sg16
I1
sg17
I6
sg18
g1
(g19
g3
NtRp325
(dp326
g22
I4
sg23
I4
sbsS'w'
I1
sbg1
(g2
g3
NtRp327
(dp328
g6
g319
sg7
I-284
sg8
Nsg34
L25570L
sg35
I-284
sg18
g36
sbsssg34
L226L
sg35
I-464
sg18
g36
sbsg1
(g13
g3
NtRp329
(dp330
S'h'
I0
sg16
I3
sg17
I3
sg18
g1
(g19
g3
NtRp331
(dp332
g22
I4
sg23
I4
sbsS'w'
I1
sbg1
(g2
g3
NtRp333
(dp334
g6
g4
sg7
I-112
sg8
g9
(g10
tRp335
I6
(dp336
g1
(g13
g3
NtRp337
(dp338
S'h'
I2
sg16
I1
sg17
I6
sg18
g1
(g19
g3
NtRp339
(dp340
g22
I4
sg23
I4
sbsS'w'
I1
sbg1
(g2
g3
NtRp341
(dp342
g6
g333
sg7
I-112
sg8
Nsg34
L25457L
sg35
I-112
sg18
g36
sbsssg34
L113L
sg35
I-454
sg18
g36
sbsg1
(g13
g3
NtRp343
(dp344
S'h'
I0
sg16
I0
sg17
I3
sg18
g1
(g19
g3
NtRp345
(dp346
g22
I4
sg23
I4
sbsS'w'
I0
sbg1
(g2
g3
NtRp347
(dp348
g6
g4
sg7
I-102
sg8
g9
(g10
tRp349
I6
(dp350
g1
(g13
g3
NtRp351
(dp352
S'h'
I2
sg16
I1
sg17
I6
sg18
g1
(g19
g3
NtRp353
(dp354
g22
I4
sg23
I4
sbsS'w'
I1
sbg1
(g2
g3
NtRp355
(dp356
g6
g347
sg7
I-102
sg8
Nsg34
L28552L
sg35
I-102
sg18
g36
sbsssg34
L3208L
sg35
I-124
sg18
g36
sbsg1
(g13
g3
NtRp357
(dp358
S'h'
I0
sg16
I0
sg17
I3
sg18
g1
(g19
g3
NtRp359
(dp360
g22
I4
sg23
I4
sbsS'w'
I1
sbg1
(g2
g3
NtRp361
(dp362
g6
g4
sg7
I41
sg8
g9
(g10
tRp363
I4
(dp364
g1
(g13
g3
NtRp365
(dp366
S'h'
I2
sg16
I1
sg17
I4
sg18
g1
(g19
g3
NtRp367
(dp368
g22
I4
sg23
I4
sbsS'w'
I0
sbg1
(g2
g3
NtRp369
(dp370
g6
g361
sg7
I41
sg8
Nsg34
L60996L
sg35
I41
sg18
g36
sbsssg34
L1604L
sg35
I-154
sg18
g36
sbsg1
(g13
g3
NtRp371
(dp372
S'h'
I0
sg16
I0
sg17
I3
sg18
g1
(g19
g3
NtRp373
(dp374
g22
I4
sg23
I4
sbsS'w'
I2
sbg1
(g2
g3
NtRp375
(dp376
g6
g4
sg7
I-354
sg8
g9
(g10
tRp377
I6
(dp378
g1
(g13
g3
NtRp379
(dp380
S'h'
I0
sg16
I0
sg17
I6
sg18
g1
(g19
g3
NtRp381
(dp382
g22
I4
sg23
I4
sbsS'w'
I0
sbg1
(g2
g3
NtRp383
(dp384
g6
g375
sg7
I-354
sg8
Nsg34
L2026L
sg35
I-354
sg18
g36
sbsssg34
L802L
sg35
I-144
sg18
g36
sbsg1
(g13
g3
NtRp385
(dp386
S'h'
I0
sg16
I1
sg17
I3
sg18
g1
(g19
g3
NtRp387
(dp388
g22
I4
sg23
I4
sbsS'w'
I0
sbg1
(g2
g3
NtRp389
(dp390
g6
g4
sg7
I-516
sg8
g9
(g10
tRp391
I6
(dp392
g1
(g13
g3
NtRp393
(dp394
S'h'
I1
sg16
I1
sg17
I6
sg18
g1
(g19
g3
NtRp395
(dp396
g22
I4
sg23
I4
sbsS'w'
I1
sbg1
(g2
g3
NtRp397
(dp398
g6
g389
sg7
I-516
sg8
Nsg34
L1726L
sg35
I-516
sg18
g36
sbsssg34
L142L
sg35
I-614
sg18
g36
sbsg1
(g13
g3
NtRp399
(dp400
S'h'
I0
sg16
I1
sg17
I3
sg18
g1
(g19
g3
NtRp401
(dp402
g22
I4
sg23
I4
sbsS'w'
I1
sbg1
(g2
g3
NtRp403
(dp404
g6
g4
sg7
I-364
sg8
g9
(g10
tRp405
I6
(dp406
g1
(g13
g3
NtRp407
(dp408
S'h'
I2
sg16
I1
sg17
I6
sg18
g1
(g19
g3
NtRp409
(dp410
g22
I4
sg23
I4
sbsS'w'
I0
sbg1
(g2
g3
NtRp411
(dp412
g6
g403
sg7
I-364
sg8
Nsg34
L50759L
sg35
I-364
sg18
g36
sbsssg34
L71L
sg35
I-624
sg18
g36
sbssI4
(dp413
g1
(g13
g3
NtRp414
(dp415
S'h'
I0
sg16
I0
sg17
I4
sg18
g1
(g19
g3
NtRp416
(dp417
g22
I4
sg23
I4
sbsS'w'
I0
sbg1
(g2
g3
NtRp418
(dp419
g6
g4
sg7
I-122
sg8
g9
(g10
tRp420
I6
(dp421
g1
(g13
g3
NtRp422
(dp423
S'h'
I2
sg16
I1
sg17
I6
sg18
g1
(g19
g3
NtRp424
(dp425
g22
I4
sg23
I4
sbsS'w'
I1
sbg1
(g2
g3
NtRp426
(dp427
g6
g418
sg7
I-122
sg8
Nsg34
L28484L
sg35
I-122
sg18
g36
sbsssg34
L3140L
sg35
I-144
sg18
g36
sbsg1
(g13
g3
NtRp428
(dp429
S'h'
I0
sg16
I0
sg17
I4
sg18
g1
(g19
g3
NtRp430
(dp431
g22
I4
sg23
I4
sbsS'w'
I1
sbg1
(g2
g3
NtRp432
(dp433
g6
g4
sg7
I-274
sg8
g9
(g10
tRp434
I4
(dp435
g1
(g13
g3
NtRp436
(dp437
S'h'
I0
sg16
I2
sg17
I4
sg18
g1
(g19
g3
NtRp438
(dp439
g22
I4
sg23
I4
sbsS'w'
I0
sbg1
(g2
g3
NtRp440
(dp441
g6
g432
sg7
I-274
sg8
Nsg34
L3758L
sg35
I-274
sg18
g36
sbsssg34
L1570L
sg35
I-154
sg18
g36
sbsg1
(g13
g3
NtRp442
(dp443
S'h'
I0
sg16
I0
sg17
I4
sg18
g1
(g19
g3
NtRp444
(dp445
g22
I4
sg23
I4
sbsS'w'
I2
sbg1
(g2
g3
NtRp446
(dp447
g6
g4
sg7
I-506
sg8
g9
(g10
tRp448
I6
(dp449
g1
(g13
g3
NtRp450
(dp451
S'h'
I0
sg16
I1
sg17
I6
sg18
g1
(g19
g3
NtRp452
(dp453
g22
I4
sg23
I4
sbsS'w'
I0
sbg1
(g2
g3
NtRp454
(dp455
g6
g446
sg7
I-506
sg8
Nsg34
L983L
sg35
I-506
sg18
g36
sbsssg34
L785L
sg35
I-124
sg18
g36
sbsg1
(g13
g3
NtRp456
(dp457
S'h'
I0
sg16
I1
sg17
I4
sg18
g1
(g19
g3
NtRp458
(dp459
g22
I4
sg23
I4
sbsS'w'
I0
sbg1
(g2
g3
NtRp460
(dp461
g6
g4
sg7
I-274
sg8
g9
(g10
tRp462
I6
(dp463
g1
(g13
g3
NtRp464
(dp465
S'h'
I2
sg16
I1
sg17
I6
sg18
g1
(g19
g3
NtRp466
(dp467
g22
I4
sg23
I4
sbsS'w'
I1
sbg1
(g2
g3
NtRp468
(dp469
g6
g460
sg7
I-274
sg8
Nsg34
L25576L
sg35
I-274
sg18
g36
sbsssg34
L232L
sg35
I-454
sg18
g36
sbsg1
(g13
g3
NtRp470
(dp471
S'h'
I0
sg16
I1
sg17
I4
sg18
g1
(g19
g3
NtRp472
(dp473
g22
I4
sg23
I4
sbsS'w'
I1
sbg1
(g2
g3
NtRp474
(dp475
g6
g4
sg7
I-122
sg8
g9
(g10
tRp476
I6
(dp477
g1
(g13
g3
NtRp478
(dp479
S'h'
I2
sg16
I1
sg17
I6
sg18
g1
(g19
g3
NtRp480
(dp481
g22
I4
sg23
I4
sbsS'w'
I1
sbg1
(g2
g3
NtRp482
(dp483
g6
g474
sg7
I-122
sg8
Nsg34
L25460L
sg35
I-122
sg18
g36
sbsssg34
L116L
sg35
I-464
sg18
g36
sbsg1
(g13
g3
NtRp484
(dp485
S'h'
I0
sg16
I2
sg17
I4
sg18
g1
(g19
g3
NtRp486
(dp487
g22
I4
sg23
I4
sbsS'w'
I0
sbg1
(g2
g3
NtRp488
(dp489
g6
g4
sg7
I-102
sg8
g9
(g10
tRp490
I6
(dp491
g1
(g13
g3
NtRp492
(dp493
S'h'
I2
sg16
I1
sg17
I6
sg18
g1
(g19
g3
NtRp494
(dp495
g22
I4
sg23
I4
sbsS'w'
I0
sbg1
(g2
g3
NtRp496
(dp497
g6
g488
sg7
I-102
sg8
Nsg34
L52876L
sg35
I-102
sg18
g36
sbsssg34
L2188L
sg35
I-284
sg18
g36
sbsg1
(g13
g3
NtRp498
(dp499
S'h'
I0
sg16
I2
sg17
I4
sg18
g1
(g19
g3
NtRp500
(dp501
g22
I4
sg23
I4
sbsS'w'
I1
sbg1
(g2
g3
NtRp502
(dp503
g6
g4
sg7
I-132
sg8
g9
(g10
tRp504
I6
(dp505
g1
(g13
g3
NtRp506
(dp507
S'h'
I2
sg16
I1
sg17
I6
sg18
g1
(g19
g3
NtRp508
(dp509
g22
I4
sg23
I4
sbsS'w'
I1
sbg1
(g2
g3
NtRp510
(dp511
g6
g502
sg7
I-132
sg8
Nsg34
L26438L
sg35
I-132
sg18
g36
sbsssg34
L1094L
sg35
I-314
sg18
g36
sbsg1
(g13
g3
NtRp512
(dp513
S'h'
I0
sg16
I2
sg17
I4
sg18
g1
(g19
g3
NtRp514
(dp515
g22
I4
sg23
I4
sbsS'w'
I2
sbg1
(g2
g3
NtRp516
(dp517
g6
g4
sg7
I-514
sg8
g9
(g10
tRp518
I6
(dp519
g1
(g13
g3
NtRp520
(dp521
S'h'
I0
sg16
I0
sg17
I6
sg18
g1
(g19
g3
NtRp522
(dp523
g22
I4
sg23
I4
sbsS'w'
I0
sbg1
(g2
g3
NtRp524
(dp525
g6
g516
sg7
I-514
sg8
Nsg34
L1771L
sg35
I-514
sg18
g36
sbsssg34
L547L
sg35
I-304
sg18
g36
sbsg1
(g13
g3
NtRp526
(dp527
S'h'
I0
sg16
I3
sg17
I4
sg18
g1
(g19
g3
NtRp528
(dp529
g22
I4
sg23
I4
sbsS'w'
I0
sbg1
(g2
g3
NtRp530
(dp531
g6
g4
sg7
I-444
sg8
g9
(g10
tRp532
I6
(dp533
g1
(g13
g3
NtRp534
(dp535
S'h'
I2
sg16
I1
sg17
I6
sg18
g1
(g19
g3
NtRp536
(dp537
g22
I4
sg23
I4
sbsS'w'
I1
sbg1
(g2
g3
NtRp538
(dp539
g6
g530
sg7
I-444
sg8
Nsg34
L25390L
sg35
I-444
sg18
g36
sbsssg34
L46L
sg35
I-624
sg18
g36
sbsg1
(g13
g3
NtRp540
(dp541
S'h'
I0
sg16
I3
sg17
I4
sg18
g1
(g19
g3
NtRp542
(dp543
g22
I4
sg23
I4
sbsS'w'
I1
sbg1
(g2
g3
NtRp544
(dp545
g6
g4
sg7
I-274
sg8
g9
(g10
tRp546
I6
(dp547
g1
(g13
g3
NtRp548
(dp549
S'h'
I2
sg16
I1
sg17
I6
sg18
g1
(g19
g3
NtRp550
(dp551
g22
I4
sg23
I4
sbsS'w'
I1
sbg1
(g2
g3
NtRp552
(dp553
g6
g544
sg7
I-274
sg8
Nsg34
L25367L
sg35
I-274
sg18
g36
sbsssg34
L23L
sg35
I-614
sg18
g36
sbssI5
(dp554
g1
(g13
g3
NtRp555
(dp556
S'h'
I0
sg16
I0
sg17
I5
sg18
g1
(g19
g3
NtRp557
(dp558
g22
I4
sg23
I4
sbsS'w'
I0
sbg1
(g2
g3
NtRp559
(dp560
g6
g4
sg7
I-30
sg8
g9
(g10
tRp561
I6
(dp562
g1
(g13
g3
NtRp563
(dp564
S'h'
I2
sg16
I1
sg17
I6
sg18
g1
(g19
g3
NtRp565
(dp566
g22
I4
sg23
I4
sbsS'w'
I0
sbg1
(g2
g3
NtRp567
(dp568
g6
g559
sg7
I-30
sg8
Nsg34
L52932L
sg35
I-30
sg18
g36
sbsssg34
L2244L
sg35
I-214
sg18
g36
sbsg1
(g13
g3
NtRp569
(dp570
S'h'
I0
sg16
I0
sg17
I5
sg18
g1
(g19
g3
NtRp571
(dp572
g22
I4
sg23
I4
sbsS'w'
I1
sbg1
(g2
g3
NtRp573
(dp574
g6
g4
sg7
I-50
sg8
g9
(g10
tRp575
I6
(dp576
g1
(g13
g3
NtRp577
(dp578
S'h'
I2
sg16
I1
sg17
I6
sg18
g1
(g19
g3
NtRp579
(dp580
g22
I4
sg23
I4
sbsS'w'
I1
sbg1
(g2
g3
NtRp581
(dp582
g6
g573
sg7
I-50
sg8
Nsg34
L26466L
sg35
I-50
sg18
g36
sbsssg34
L1122L
sg35
I-234
sg18
g36
sbsg1
(g13
g3
NtRp583
(dp584
S'h'
I0
sg16
I0
sg17
I5
sg18
g1
(g19
g3
NtRp585
(dp586
g22
I4
sg23
I4
sbsS'w'
I2
sbg1
(g2
g3
NtRp587
(dp588
g6
g4
sg7
I-424
sg8
g9
(g10
tRp589
I6
(dp590
g1
(g13
g3
NtRp591
(dp592
S'h'
I0
sg16
I0
sg17
I6
sg18
g1
(g19
g3
NtRp593
(dp594
g22
I4
sg23
I4
sbsS'w'
I0
sbg1
(g2
g3
NtRp595
(dp596
g6
g587
sg7
I-424
sg8
Nsg34
L1785L
sg35
I-424
sg18
g36
sbsssg34
L561L
sg35
I-214
sg18
g36
sbsg1
(g13
g3
NtRp597
(dp598
S'h'
I0
sg16
I1
sg17
I5
sg18
g1
(g19
g3
NtRp599
(dp600
g22
I4
sg23
I4
sbsS'w'
I0
sbg1
(g2
g3
NtRp601
(dp602
g6
g4
sg7
I-353
sg8
g9
(g10
tRp603
I4
(dp604
g1
(g13
g3
NtRp605
(dp606
S'h'
I2
sg16
I3
sg17
I4
sg18
g1
(g19
g3
NtRp607
(dp608
g22
I4
sg23
I4
sbsS'w'
I1
sbg1
(g2
g3
NtRp609
(dp610
g6
g601
sg7
I-353
sg8
Nsg34
L5996L
sg35
I-353
sg18
g36
sbsssg34
L108L
sg35
I-544
sg18
g36
sbsg1
(g13
g3
NtRp611
(dp612
S'h'
I0
sg16
I1
sg17
I5
sg18
g1
(g19
g3
NtRp613
(dp614
g22
I4
sg23
I4
sbsS'w'
I1
sbg1
(g2
g3
NtRp615
(dp616
g6
g4
sg7
I-353
sg8
g9
(g10
tRp617
I5
(dp618
g1
(g13
g3
NtRp619
(dp620
S'h'
I1
sg16
I0
sg17
I5
sg18
g1
(g19
g3
NtRp621
(dp622
g22
I4
sg23
I4
sbsS'w'
I0
sbg1
(g2
g3
NtRp623
(dp624
g6
g615
sg7
I-353
sg8
Nsg34
L35958L
sg35
I-353
sg18
g36
sbsssg34
L54L
sg35
I-544
sg18
g36
sbssI6
(dp625
g1
(g13
g3
NtRp626
(dp627
S'h'
I0
sg16
I0
sg17
I6
sg18
g1
(g19
g3
NtRp628
(dp629
g22
I4
sg23
I4
sbsS'w'
I0
sbg1
(g2
g3
NtRp630
(dp631
g6
g4
sg7
I-424
sg8
g9
(g10
tRp632
I5
(dp633
g1
(g13
g3
NtRp634
(dp635
S'h'
I0
sg16
I0
sg17
I5
sg18
g593
sS'w'
I2
sbg1
(g2
g3
NtRp636
(dp637
g6
g630
sg7
I-424
sg8
Nsg34
L1785L
sg35
I-424
sg18
g36
sbsssg34
L1224L
sg35
I-214
sg18
g36
sbsg1
(g13
g3
NtRp638
(dp639
S'h'
I0
sg16
I0
sg17
I6
sg18
g1
(g19
g3
NtRp640
(dp641
g22
I4
sg23
I4
sbsS'w'
I1
sbg1
(g2
g3
NtRp642
(dp643
g6
g4
sg7
I31
sg8
g9
(g10
tRp644
I4
(dp645
g1
(g13
g3
NtRp646
(dp647
S'h'
I2
sg16
I1
sg17
I4
sg18
g1
(g19
g3
NtRp648
(dp649
g22
I4
sg23
I4
sbsS'w'
I1
sbg1
(g2
g3
NtRp650
(dp651
g6
g642
sg7
I31
sg8
Nsg34
L30308L
sg35
I31
sg18
g36
sbsssg34
L612L
sg35
I-234
sg18
g36
sbsg1
(g13
g3
NtRp652
(dp653
S'h'
I0
sg16
I0
sg17
I6
sg18
g1
(g19
g3
NtRp654
(dp655
g22
I4
sg23
I4
sbsS'w'
I2
sbg1
(g2
g3
NtRp656
(dp657
g6
g4
sg7
I-424
sg8
g9
(g10
tRp658
I5
(dp659
g1
(g13
g3
NtRp660
(dp661
S'h'
I0
sg16
I0
sg17
I5
sg18
g1
(g19
g3
NtRp662
(dp663
g22
I4
sg23
I4
sbsS'w'
I0
sbg1
(g2
g3
NtRp664
(dp665
g6
g656
sg7
I-424
sg8
Nsg34
L2550L
sg35
I-424
sg18
g36
sbsssg34
L306L
sg35
I-214
sg18
g36
sbsg1
(g13
g3
NtRp666
(dp667
S'h'
I0
sg16
I1
sg17
I6
sg18
g1
(g19
g3
NtRp668
(dp669
g22
I4
sg23
I4
sbsS'w'
I0
sbg1
(g2
g3
NtRp670
(dp671
g6
g4
sg7
I-512
sg8
g9
(g10
tRp672
I5
(dp673
g1
(g13
g3
NtRp674
(dp675
S'h'
I0
sg16
I0
sg17
I5
sg18
g1
(g19
g3
NtRp676
(dp677
g22
I4
sg23
I4
sbsS'w'
I2
sbg1
(g2
g3
NtRp678
(dp679
g6
g670
sg7
I-512
sg8
Nsg34
L759L
sg35
I-512
sg18
g36
sbsssg34
L198L
sg35
I-544
sg18
g36
sbsg1
(g13
g3
NtRp680
(dp681
S'h'
I0
sg16
I1
sg17
I6
sg18
g1
(g19
g3
NtRp682
(dp683
g22
I4
sg23
I4
sbsS'w'
I1
sbg1
(g2
g3
NtRp684
(dp685
g6
g4
sg7
I-193
sg8
g9
(g10
tRp686
I4
(dp687
g1
(g13
g3
NtRp688
(dp689
S'h'
I2
sg16
I3
sg17
I4
sg18
g1
(g19
g3
NtRp690
(dp691
g22
I4
sg23
I4
sbsS'w'
I1
sbg1
(g2
g3
NtRp692
(dp693
g6
g684
sg7
I-193
sg8
Nsg34
L5987L
sg35
I-193
sg18
g36
sbsssg34
L99L
sg35
I-544
sg18
g36
sbsssg34
L0L
sg35
Finf
sg18
g36
sb.