ccopy_reg
_reconstructor
p1
(ctree
State
p2
c__builtin__
object
p3
NtRp4
(dp5
S'max_utility'
p6
F-inf
sS'_bhash'
p7
L0L
sS'parent'
p8
NsS'actions'
p9
ccollections
defaultdict
p10
(c__builtin__
dict
p11
tRp12
I0
(dp13
g1
(ctree
Action
p14
g3
NtRp15
(dp16
S'h'
I0
sS'rotation'
p17
I0
sS'piece'
p18
I0
sS'w'
I0
sbg1
(g2
g3
NtRp19
(dp20
g6
F-inf
sg7
L34952L
sg8
g4
sg9
g10
(g11
tRp21
I4
(dp22
g1
(g14
g3
NtRp23
(dp24
S'h'
I0
sg17
I3
sg18
I4
sS'w'
I1
sbg1
(g2
g3
NtRp25
(dp26
g6
F-inf
sg7
L34975L
sg8
g19
sg9
g10
(g11
tRp27
I5
(dp28
g1
(g14
g3
NtRp29
(dp30
S'h'
I1
sg17
I1
sg18
I5
sS'w'
I1
sbg1
(g2
g3
NtRp31
(dp32
g6
F-inf
sg7
L35839L
sg8
g25
sg9
g10
(g11
tRp33
I4
(dp34
g1
(g14
g3
NtRp35
(dp36
S'h'
I2
sg17
I1
sg18
I4
sS'w'
I1
sbg1
(g2
g3
NtRp37
(dp38
g6
F-inf
sg7
L65535L
sg8
g31
sg9
g10
(g11
tRp39
sS'utility'
p40
F-inf
sbsssg40
F-inf
sbsssg40
F-inf
sbsssg40
F-inf
sbsg1
(g14
g3
NtRp41
(dp42
S'h'
I0
sg17
I0
sg18
I0
sS'w'
I1
sbg1
(g2
g3
NtRp43
(dp44
g6
F-inf
sg7
L17476L
sg8
g4
sg9
g10
(g11
tRp45
I4
(dp46
g1
(g14
g3
NtRp47
(dp48
S'h'
I0
sg17
I2
sg18
I4
sS'w'
I2
sbg1
(g2
g3
NtRp49
(dp50
g6
F-inf
sg7
L18023L
sg8
g43
sg9
g10
(g11
tRp51
I4
(dp52
g1
(g14
g3
NtRp53
(dp54
S'h'
I1
sg17
I0
sg18
I4
sS'w'
I2
sbg1
(g2
g3
NtRp55
(dp56
g6
F-inf
sg7
L30583L
sg8
g49
sg9
g10
(g11
tRp57
I0
(dp58
g1
(g14
g3
NtRp59
(dp60
S'h'
I0
sg17
I0
sg18
I0
sS'w'
I0
sbg1
(g2
g3
NtRp61
(dp62
g6
F-inf
sg7
L65535L
sg8
g55
sg9
g10
(g11
tRp63
sg40
F-inf
sbsssg40
F-inf
sbsssg40
F-inf
sbsssg40
F-inf
sbsg1
(g14
g3
NtRp64
(dp65
S'h'
I0
sg17
I0
sg18
I0
sS'w'
I2
sbg1
(g2
g3
NtRp66
(dp67
g6
F-inf
sg7
L8738L
sg8
g4
sg9
g10
(g11
tRp68
I4
(dp69
g1
(g14
g3
NtRp70
(dp71
S'h'
I0
sg17
I2
sg18
I4
sS'w'
I0
sbg1
(g2
g3
NtRp72
(dp73
g6
F-inf
sg7
L10926L
sg8
g66
sg9
g10
(g11
tRp74
I4
(dp75
g1
(g14
g3
NtRp76
(dp77
S'h'
I1
sg17
I0
sg18
I4
sS'w'
I0
sbg1
(g2
g3
NtRp78
(dp79
g6
F-inf
sg7
L61166L
sg8
g72
sg9
g10
(g11
tRp80
I0
(dp81
g1
(g14
g3
NtRp82
(dp83
S'h'
I0
sg17
I0
sg18
I0
sS'w'
I3
sbg1
(g2
g3
NtRp84
(dp85
g6
F-inf
sg7
L65535L
sg8
g78
sg9
g10
(g11
tRp86
sg40
F-inf
sbsssg40
F-inf
sbsssg40
F-inf
sbsssg40
F-inf
sbsg1
(g14
g3
NtRp87
(dp88
S'h'
I0
sg17
I0
sg18
I0
sS'w'
I3
sbg1
(g2
g3
NtRp89
(dp90
g6
F-inf
sg7
L4369L
sg8
g4
sg9
g10
(g11
tRp91
I3
(dp92
g1
(g14
g3
NtRp93
(dp94
S'h'
I0
sg17
I2
sg18
I3
sS'w'
I1
sbg1
(g2
g3
NtRp95
(dp96
g6
F-inf
sg7
L4919L
sg8
g89
sg9
g10
(g11
tRp97
I6
(dp98
g1
(g14
g3
NtRp99
(dp100
S'h'
I0
sg17
I0
sg18
I6
sS'w'
I0
sbg1
(g2
g3
NtRp101
(dp102
g6
F-inf
sg7
L6143L
sg8
g95
sg9
g10
(g11
tRp103
I4
(dp104
g1
(g14
g3
NtRp105
(dp106
S'h'
I2
sg17
I1
sg18
I4
sS'w'
I0
sbg1
(g2
g3
NtRp107
(dp108
g6
F-inf
sg7
L65535L
sg8
g101
sg9
g10
(g11
tRp109
sg40
F-inf
sbsssg40
F-inf
sbsssg40
F-inf
sbsssg40
F-inf
sbsg1
(g14
g3
NtRp110
(dp111
S'h'
I0
sg17
I1
sg18
I0
sS'w'
I0
sbg1
(g2
g3
NtRp112
(dp113
g6
F-inf
sg7
L15L
sg8
g4
sg9
g10
(g11
tRp114
I4
(dp115
g1
(g14
g3
NtRp116
(dp117
S'h'
I1
sg17
I2
sg18
I4
sS'w'
I0
sbg1
(g2
g3
NtRp118
(dp119
g6
F-inf
sg7
L35023L
sg8
g112
sg9
g10
(g11
tRp120
I5
(dp121
g1
(g14
g3
NtRp122
(dp123
S'h'
I1
sg17
I0
sg18
I5
sS'w'
I1
sbg1
(g2
g3
NtRp124
(dp125
g6
F-inf
sg7
L52975L
sg8
g118
sg9
g10
(g11
tRp126
I4
(dp127
g1
(g14
g3
NtRp128
(dp129
S'h'
I1
sg17
I0
sg18
I4
sS'w'
I2
sbg1
(g2
g3
NtRp130
(dp131
g6
F-inf
sg7
L65535L
sg8
g124
sg9
g10
(g11
tRp132
sg40
F-inf
sbsssg40
F-inf
sbsssg40
F-inf
sbsssg40
F-inf
sbssI1
(dp133
g1
(g14
g3
NtRp134
(dp135
S'h'
I0
sg17
I0
sg18
I1
sS'w'
I0
sbg1
(g2
g3
NtRp136
(dp137
g6
F-inf
sg7
L204L
sg8
g4
sg9
g10
(g11
tRp138
I4
(dp139
g1
(g14
g3
NtRp140
(dp141
S'h'
I0
sg17
I2
sg18
I4
sS'w'
I2
sbg1
(g2
g3
NtRp142
(dp143
g6
F-inf
sg7
L751L
sg8
g136
sg9
g10
(g11
tRp144
I4
(dp145
g1
(g14
g3
NtRp146
(dp147
S'h'
I1
sg17
I0
sg18
I4
sS'w'
I2
sbg1
(g2
g3
NtRp148
(dp149
g6
F-inf
sg7
L13311L
sg8
g142
sg9
g10
(g11
tRp150
I1
(dp151
g1
(g14
g3
NtRp152
(dp153
S'h'
I2
sg17
I0
sg18
I1
sS'w'
I0
sbg1
(g2
g3
NtRp154
(dp155
g6
F-inf
sg7
L65535L
sg8
g148
sg9
g10
(g11
tRp156
sg40
F-inf
sbsssg40
F-inf
sbsssg40
F-inf
sbsssg40
F-inf
sbsg1
(g14
g3
NtRp157
(dp158
S'h'
I0
sg17
I0
sg18
I1
sS'w'
I1
sbg1
(g2
g3
NtRp159
(dp160
g6
F-inf
sg7
L102L
sg8
g4
sg9
g10
(g11
tRp161
I4
(dp162
g1
(g14
g3
NtRp163
(dp164
S'h'
I0
sg17
I0
sg18
I4
sS'w'
I2
sbg1
(g2
g3
NtRp165
(dp166
g6
F-inf
sg7
L887L
sg8
g159
sg9
g10
(g11
tRp167
I3
(dp168
g1
(g14
g3
NtRp169
(dp170
S'h'
I0
sg17
I0
sg18
I3
sS'w'
I0
sbg1
(g2
g3
NtRp171
(dp172
g6
F-inf
sg7
L4095L
sg8
g165
sg9
g10
(g11
tRp173
I0
(dp174
g1
(g14
g3
NtRp175
(dp176
S'h'
I3
sg17
I1
sg18
I0
sS'w'
I0
sbg1
(g2
g3
NtRp177
(dp178
g6
F-inf
sg7
L65535L
sg8
g171
sg9
g10
(g11
tRp179
sg40
F-inf
sbsssg40
F-inf
sbsssg40
F-inf
sbsssg40
F-inf
sbsg1
(g14
g3
NtRp180
(dp181
S'h'
I0
sg17
I0
sg18
I1
sS'w'
I2
sbg1
(g2
g3
NtRp182
(dp183
g6
F-inf
sg7
L51L
sg8
g4
sg9
g10
(g11
tRp184
I4
(dp185
g1
(g14
g3
NtRp186
(dp187
S'h'
I0
sg17
I2
sg18
I4
sS'w'
I0
sbg1
(g2
g3
NtRp188
(dp189
g6
F-inf
sg7
L2239L
sg8
g182
sg9
g10
(g11
tRp190
I4
(dp191
g1
(g14
g3
NtRp192
(dp193
S'h'
I1
sg17
I0
sg18
I4
sS'w'
I0
sbg1
(g2
g3
NtRp194
(dp195
g6
F-inf
sg7
L52479L
sg8
g188
sg9
g10
(g11
tRp196
I1
(dp197
g1
(g14
g3
NtRp198
(dp199
S'h'
I2
sg17
I0
sg18
I1
sS'w'
I2
sbg1
(g2
g3
NtRp200
(dp201
g6
F-inf
sg7
L65535L
sg8
g194
sg9
g10
(g11
tRp202
sg40
F-inf
sbsssg40
F-inf
sbsssg40
F-inf
sbsssg40
F-inf
sbssI2
(dp203
g1
(g14
g3
NtRp204
(dp205
S'h'
I0
sg17
I1
sg18
I2
sS'w'
I0
sbg1
(g2
g3
NtRp206
(dp207
g6
F-inf
sg7
L78L
sg8
g4
sg9
g10
(g11
tRp208
I2
(dp209
g1
(g14
g3
NtRp210
(dp211
S'h'
I0
sg17
I2
sg18
I2
sS'w'
I2
sbg1
(g2
g3
NtRp212
(dp213
g6
F-inf
sg7
L383L
sg8
g206
sg9
g10
(g11
tRp214
I5
(dp215
g1
(g14
g3
NtRp216
(dp217
S'h'
I2
sg17
I1
sg18
I5
sS'w'
I1
sbg1
(g2
g3
NtRp218
(dp219
g6
F-inf
sg7
L14207L
sg8
g212
sg9
g10
(g11
tRp220
I3
(dp221
g1
(g14
g3
NtRp222
(dp223
S'h'
I1
sg17
I0
sg18
I3
sS'w'
I0
sbg1
(g2
g3
NtRp224
(dp225
g6
F-inf
sg7
L65535L
sg8
g218
sg9
g10
(g11
tRp226
sg40
F-inf
sbsssg40
F-inf
sbsssg40
F-inf
sbsssg40
F-inf
sbsg1
(g14
g3
NtRp227
(dp228
S'h'
I0
sg17
I1
sg18
I2
sS'w'
I1
sbg1
(g2
g3
NtRp229
(dp230
g6
F-inf
sg7
L39L
sg8
g4
sg9
g10
(g11
tRp231
I6
(dp232
g1
(g14
g3
NtRp233
(dp234
S'h'
I0
sg17
I0
sg18
I6
sS'w'
I0
sbg1
(g2
g3
NtRp235
(dp236
g6
F-inf
sg7
L1263L
sg8
g229
sg9
g10
(g11
tRp237
I2
(dp238
g1
(g14
g3
NtRp239
(dp240
S'h'
I1
sg17
I2
sg18
I2
sS'w'
I2
sbg1
(g2
g3
NtRp241
(dp242
g6
F-inf
sg7
L6143L
sg8
g235
sg9
g10
(g11
tRp243
I4
(dp244
g1
(g14
g3
NtRp245
(dp246
S'h'
I2
sg17
I1
sg18
I4
sS'w'
I0
sbg1
(g2
g3
NtRp247
(dp248
g6
F-inf
sg7
L65535L
sg8
g241
sg9
g10
(g11
tRp249
sg40
F-inf
sbsssg40
F-inf
sbsssg40
F-inf
sbsssg40
F-inf
sbssI3
(dp250
g1
(g14
g3
NtRp251
(dp252
S'h'
I0
sg17
I2
sg18
I3
sS'w'
I0
sbg1
(g2
g3
NtRp253
(dp254
g6
F-inf
sg7
L1100L
sg8
g4
sg9
g10
(g11
tRp255
I4
(dp256
g1
(g14
g3
NtRp257
(dp258
S'h'
I0
sg17
I2
sg18
I4
sS'w'
I2
sbg1
(g2
g3
NtRp259
(dp260
g6
F-inf
sg7
L1647L
sg8
g253
sg9
g10
(g11
tRp261
I4
(dp262
g1
(g14
g3
NtRp263
(dp264
S'h'
I1
sg17
I0
sg18
I4
sS'w'
I2
sbg1
(g2
g3
NtRp265
(dp266
g6
F-inf
sg7
L14207L
sg8
g259
sg9
g10
(g11
tRp267
I3
(dp268
g1
(g14
g3
NtRp269
(dp270
S'h'
I1
sg17
I0
sg18
I3
sS'w'
I0
sbg1
(g2
g3
NtRp271
(dp272
g6
F-inf
sg7
L65535L
sg8
g265
sg9
g10
(g11
tRp273
sg40
F-inf
sbsssg40
F-inf
sbsssg40
F-inf
sbsssg40
F-inf
sbsg1
(g14
g3
NtRp274
(dp275
S'h'
I0
sg17
I2
sg18
I3
sS'w'
I1
sbg1
(g2
g3
NtRp276
(dp277
g6
F-inf
sg7
L550L
sg8
g4
sg9
g10
(g11
tRp278
I6
(dp279
g1
(g14
g3
NtRp280
(dp281
S'h'
I0
sg17
I0
sg18
I6
sS'w'
I0
sbg1
(g2
g3
NtRp282
(dp283
g6
F-inf
sg7
L1774L
sg8
g276
sg9
g10
(g11
tRp284
I4
(dp285
g1
(g14
g3
NtRp286
(dp287
S'h'
I2
sg17
I1
sg18
I4
sS'w'
I0
sbg1
(g2
g3
NtRp288
(dp289
g6
F-inf
sg7
L61166L
sg8
g282
sg9
g10
(g11
tRp290
I0
(dp291
g1
(g14
g3
NtRp292
(dp293
S'h'
I0
sg17
I0
sg18
I0
sS'w'
I3
sbg1
(g2
g3
NtRp294
(dp295
g6
F-inf
sg7
L65535L
sg8
g288
sg9
g10
(g11
tRp296
sg40
F-inf
sbsssg40
F-inf
sbsssg40
F-inf
sbsssg40
F-inf
sbsg1
(g14
g3
NtRp297
(dp298
S'h'
I0
sg17
I2
sg18
I3
sS'w'
I2
sbg1
(g2
g3
NtRp299
(dp300
g6
F-inf
sg7
L275L
sg8
g4
sg9
g10
(g11
tRp301
I4
(dp302
g1
(g14
g3
NtRp303
(dp304
S'h'
I0
sg17
I2
sg18
I4
sS'w'
I0
sbg1
(g2
g3
NtRp305
(dp306
g6
F-inf
sg7
L2463L
sg8
g299
sg9
g10
(g11
tRp307
I4
(dp308
g1
(g14
g3
NtRp309
(dp310
S'h'
I1
sg17
I0
sg18
I4
sS'w'
I0
sbg1
(g2
g3
NtRp311
(dp312
g6
F-inf
sg7
L52703L
sg8
g305
sg9
g10
(g11
tRp313
I3
(dp314
g1
(g14
g3
NtRp315
(dp316
S'h'
I1
sg17
I0
sg18
I3
sS'w'
I2
sbg1
(g2
g3
NtRp317
(dp318
g6
F-inf
sg7
L65535L
sg8
g311
sg9
g10
(g11
tRp319
sg40
F-inf
sbsssg40
F-inf
sbsssg40
F-inf
sbsssg40
F-inf
sbsg1
(g14
g3
NtRp320
(dp321
S'h'
I0
sg17
I1
sg18
I3
sS'w'
I0
sbg1
(g2
g3
NtRp322
(dp323
g6
F-inf
sg7
L142L
sg8
g4
sg9
g10
(g11
tRp324
I5
(dp325
g1
(g14
g3
NtRp326
(dp327
S'h'
I1
sg17
I0
sg18
I5
sS'w'
I0
sbg1
(g2
g3
NtRp328
(dp329
g6
F-inf
sg7
L36046L
sg8
g322
sg9
g10
(g11
tRp330
I5
(dp331
g1
(g14
g3
NtRp332
(dp333
S'h'
I0
sg17
I0
sg18
I5
sS'w'
I2
sbg1
(g2
g3
NtRp334
(dp335
g6
F-inf
sg7
L36607L
sg8
g328
sg9
g10
(g11
tRp336
I3
(dp337
g1
(g14
g3
NtRp338
(dp339
S'h'
I2
sg17
I3
sg18
I3
sS'w'
I1
sbg1
(g2
g3
NtRp340
(dp341
g6
F-inf
sg7
L65535L
sg8
g334
sg9
g10
(g11
tRp342
sg40
F-inf
sbsssg40
F-inf
sbsssg40
F-inf
sbsssg40
F-inf
sbsg1
(g14
g3
NtRp343
(dp344
S'h'
I0
sg17
I1
sg18
I3
sS'w'
I1
sbg1
(g2
g3
NtRp345
(dp346
g6
F-inf
sg7
L71L
sg8
g4
sg9
g10
(g11
tRp347
I3
(dp348
g1
(g14
g3
NtRp349
(dp350
S'h'
I1
sg17
I2
sg18
I3
sS'w'
I2
sbg1
(g2
g3
NtRp351
(dp352
g6
F-inf
sg7
L4471L
sg8
g345
sg9
g10
(g11
tRp353
I3
(dp354
g1
(g14
g3
NtRp355
(dp356
S'h'
I0
sg17
I0
sg18
I3
sS'w'
I0
sbg1
(g2
g3
NtRp357
(dp358
g6
F-inf
sg7
L7679L
sg8
g351
sg9
g10
(g11
tRp359
I3
(dp360
g1
(g14
g3
NtRp361
(dp362
S'h'
I2
sg17
I3
sg18
I3
sS'w'
I0
sbg1
(g2
g3
NtRp363
(dp364
g6
F-inf
sg7
L65535L
sg8
g357
sg9
g10
(g11
tRp365
sg40
F-inf
sbsssg40
F-inf
sbsssg40
F-inf
sbsssg40
F-inf
sbssI4
(dp366
g1
(g14
g3
NtRp367
(dp368
S'h'
I0
sg17
I2
sg18
I4
sS'w'
I0
sbg1
(g2
g3
NtRp369
(dp370
g6
F-inf
sg7
L2188L
sg8
g4
sg9
g10
(g11
tRp371
I6
(dp372
g1
(g14
g3
NtRp373
(dp374
S'h'
I0
sg17
I1
sg18
I6
sS'w'
I1
sbg1
(g2
g3
NtRp375
(dp376
g6
F-inf
sg7
L2287L
sg8
g369
sg9
g10
(g11
tRp377
I6
(dp378
g1
(g14
g3
NtRp379
(dp380
S'h'
I2
sg17
I1
sg18
I6
sS'w'
I0
sbg1
(g2
g3
NtRp381
(dp382
g6
F-inf
sg7
L52975L
sg8
g375
sg9
g10
(g11
tRp383
I4
(dp384
g1
(g14
g3
NtRp385
(dp386
S'h'
I1
sg17
I0
sg18
I4
sS'w'
I2
sbg1
(g2
g3
NtRp387
(dp388
g6
F-inf
sg7
L65535L
sg8
g381
sg9
g10
(g11
tRp389
sg40
F-inf
sbsssg40
F-inf
sbsssg40
F-inf
sbsssg40
F-inf
sbsg1
(g14
g3
NtRp390
(dp391
S'h'
I0
sg17
I2
sg18
I4
sS'w'
I1
sbg1
(g2
g3
NtRp392
(dp393
g6
F-inf
sg7
L1094L
sg8
g4
sg9
g10
(g11
tRp394
I5
(dp395
g1
(g14
g3
NtRp396
(dp397
S'h'
I0
sg17
I0
sg18
I5
sS'w'
I2
sbg1
(g2
g3
NtRp398
(dp399
g6
F-inf
sg7
L1655L
sg8
g392
sg9
g10
(g11
tRp400
I3
(dp401
g1
(g14
g3
NtRp402
(dp403
S'h'
I2
sg17
I3
sg18
I3
sS'w'
I1
sbg1
(g2
g3
NtRp404
(dp405
g6
F-inf
sg7
L30583L
sg8
g398
sg9
g10
(g11
tRp406
I0
(dp407
g1
(g14
g3
NtRp408
(dp409
S'h'
I0
sg17
I0
sg18
I0
sS'w'
I0
sbg1
(g2
g3
NtRp410
(dp411
g6
F-inf
sg7
L65535L
sg8
g404
sg9
g10
(g11
tRp412
sg40
F-inf
sbsssg40
F-inf
sbsssg40
F-inf
sbsssg40
F-inf
sbsg1
(g14
g3
NtRp413
(dp414
S'h'
I0
sg17
I2
sg18
I4
sS'w'
I2
sbg1
(g2
g3
NtRp415
(dp416
g6
F-inf
sg7
L547L
sg8
g4
sg9
g10
(g11
tRp417
I4
(dp418
g1
(g14
g3
NtRp419
(dp420
S'h'
I0
sg17
I2
sg18
I4
sS'w'
I0
sbg1
(g2
g3
NtRp421
(dp422
g6
F-inf
sg7
L2735L
sg8
g415
sg9
g10
(g11
tRp423
I4
(dp424
g1
(g14
g3
NtRp425
(dp426
S'h'
I1
sg17
I0
sg18
I4
sS'w'
I2
sbg1
(g2
g3
NtRp427
(dp428
g6
F-inf
sg7
L15295L
sg8
g421
sg9
g10
(g11
tRp429
I4
(dp430
g1
(g14
g3
NtRp431
(dp432
S'h'
I1
sg17
I0
sg18
I4
sS'w'
I0
sbg1
(g2
g3
NtRp433
(dp434
g6
F-inf
sg7
L65535L
sg8
g427
sg9
g10
(g11
tRp435
sg40
F-inf
sbsssg40
F-inf
sbsssg40
F-inf
sbsssg40
F-inf
sbsg1
(g14
g3
NtRp436
(dp437
S'h'
I0
sg17
I3
sg18
I4
sS'w'
I0
sbg1
(g2
g3
NtRp438
(dp439
g6
F-inf
sg7
L46L
sg8
g4
sg9
g10
(g11
tRp440
I4
(dp441
g1
(g14
g3
NtRp442
(dp443
S'h'
I1
sg17
I2
sg18
I4
sS'w'
I0
sbg1
(g2
g3
NtRp444
(dp445
g6
F-inf
sg7
L35054L
sg8
g438
sg9
g10
(g11
tRp446
I4
(dp447
g1
(g14
g3
NtRp448
(dp449
S'h'
I0
sg17
I0
sg18
I4
sS'w'
I2
sbg1
(g2
g3
NtRp450
(dp451
g6
F-inf
sg7
L35839L
sg8
g444
sg9
g10
(g11
tRp452
I4
(dp453
g1
(g14
g3
NtRp454
(dp455
S'h'
I2
sg17
I1
sg18
I4
sS'w'
I1
sbg1
(g2
g3
NtRp456
(dp457
g6
F-inf
sg7
L65535L
sg8
g450
sg9
g10
(g11
tRp458
sg40
F-inf
sbsssg40
F-inf
sbsssg40
F-inf
sbsssg40
F-inf
sbsg1
(g14
g3
NtRp459
(dp460
S'h'
I0
sg17
I3
sg18
I4
sS'w'
I1
sbg1
(g2
g3
NtRp461
(dp462
g6
F-inf
sg7
L23L
sg8
g4
sg9
g10
(g11
tRp463
I6
(dp464
g1
(g14
g3
NtRp465
(dp466
S'h'
I1
sg17
I0
sg18
I6
sS'w'
I2
sbg1
(g2
g3
NtRp467
(dp468
g6
F-inf
sg7
L4919L
sg8
g461
sg9
g10
(g11
tRp469
I6
(dp470
g1
(g14
g3
NtRp471
(dp472
S'h'
I0
sg17
I0
sg18
I6
sS'w'
I0
sbg1
(g2
g3
NtRp473
(dp474
g6
F-inf
sg7
L6143L
sg8
g467
sg9
g10
(g11
tRp475
I4
(dp476
g1
(g14
g3
NtRp477
(dp478
S'h'
I2
sg17
I1
sg18
I4
sS'w'
I0
sbg1
(g2
g3
NtRp479
(dp480
g6
F-inf
sg7
L65535L
sg8
g473
sg9
g10
(g11
tRp481
sg40
F-inf
sbsssg40
F-inf
sbsssg40
F-inf
sbsssg40
F-inf
sbsssg40
Finf
sb.