ccopy_reg
_reconstructor
p0
(ctree
State
p1
c__builtin__
object
p2
Ntp3
Rp4
(dp5
S'parent'
p6
NsS'max_utility'
p7
Finf
sS'_bhash'
p8
L0L
sS'actions'
p9
ccollections
defaultdict
p10
(c__builtin__
dict
p11
tp12
Rp13
I0
(dp14
g0
(ctree
Action
p15
g2
Ntp16
Rp17
(dp18
S'h'
p19
I0
sS'rotation'
p20
I0
sS'piece'
p21
I0
sS'board'
p22
g0
(ctree
Board
p23
g2
Ntp24
Rp25
(dp26
S'_height'
p27
I4
sS'_width'
p28
I3
sbsS'w'
p29
I0
sbg0
(g1
g2
Ntp30
Rp31
(dp32
g6
g4
sg7
Finf
sg8
L2340L
sg9
g10
(g11
tp33
Rp34
I0
(dp35
g0
(g15
g2
Ntp36
Rp37
(dp38
g19
I0
sg20
I0
sg21
I0
sg22
g0
(g23
g2
Ntp39
Rp40
(dp41
g27
I4
sg28
I3
sbsg29
I1
sbg0
(g1
g2
Ntp42
Rp43
(dp44
g6
g31
sg7
Finf
sg8
L3510L
sg9
g10
(g11
tp45
Rp46
I0
(dp47
g0
(g15
g2
Ntp48
Rp49
(dp50
g19
I0
sg20
I0
sg21
I0
sg22
g0
(g23
g2
Ntp51
Rp52
(dp53
g27
I4
sg28
I3
sbsg29
I2
sbg0
(g1
g2
Ntp54
Rp55
(dp56
g6
g43
sg7
Finf
sg8
L4095L
sg9
g10
(g11
tp57
Rp58
sg22
g0
(g23
g2
Ntp59
Rp60
(dp61
g27
I4
sg28
I3
sbsS'_board_state'
p62
cnumpy.core.multiarray
_reconstruct
p63
(cnumpy
ndarray
p64
(I0
tp65
S'b'
p66
tp67
Rp68
(I1
(L4L
L3L
tp69
cnumpy
dtype
p70
(S'b1'
p71
I0
I1
tp72
Rp73
(I3
S'|'
p74
NNNI-1
I-1
I0
tp75
bI00
S'\x01\x01\x01\x01\x01\x01\x01\x01\x01\x01\x01\x01'
p76
tp77
bsS'utility'
p78
Finf
sbsssg22
g60
sg62
g63
(g64
(I0
tp79
g66
tp80
Rp81
(I1
(L4L
L3L
tp82
g73
I00
S'\x01\x01\x00\x01\x01\x00\x01\x01\x00\x01\x01\x00'
p83
tp84
bsg78
I52
sbsg0
(g15
g2
Ntp85
Rp86
(dp87
g19
I0
sg20
I0
sg21
I0
sg22
g0
(g23
g2
Ntp88
Rp89
(dp90
g27
I4
sg28
I3
sbsg29
I2
sbg0
(g1
g2
Ntp91
Rp92
(dp93
g6
g31
sg7
Finf
sg8
L2925L
sg9
g10
(g11
tp94
Rp95
I0
(dp96
g0
(g15
g2
Ntp97
Rp98
(dp99
g19
I0
sg20
I0
sg21
I0
sg22
g52
sg29
I1
sbg0
(g1
g2
Ntp100
Rp101
(dp102
g6
g92
sg7
Finf
sg8
L4095L
sg9
g10
(g11
tp103
Rp104
sg22
g60
sg62
g63
(g64
(I0
tp105
g66
tp106
Rp107
(I1
(L4L
L3L
tp108
g73
I00
S'\x01\x01\x01\x01\x01\x01\x01\x01\x01\x01\x01\x01'
p109
tp110
bsg78
Finf
sbsssg22
g60
sg62
g63
(g64
(I0
tp111
g66
tp112
Rp113
(I1
(L4L
L3L
tp114
g73
I00
S'\x01\x00\x01\x01\x00\x01\x01\x00\x01\x01\x00\x01'
p115
tp116
bsg78
I56
sbssI1
(dp117
g0
(g15
g2
Ntp118
Rp119
(dp120
g19
I0
sg20
I0
sg21
I1
sg22
g0
(g23
g2
Ntp121
Rp122
(dp123
g27
I4
sg28
I3
sbsg29
I1
sbg0
(g1
g2
Ntp124
Rp125
(dp126
g6
g31
sg7
Finf
sg8
L2367L
sg9
g10
(g11
tp127
Rp128
I1
(dp129
g0
(g15
g2
Ntp130
Rp131
(dp132
g19
I2
sg20
I0
sg21
I1
sg22
g0
(g23
g2
Ntp133
Rp134
(dp135
g27
I4
sg28
I3
sbsg29
I1
sbg0
(g1
g2
Ntp136
Rp137
(dp138
g6
g125
sg7
Finf
sg8
L4095L
sg9
g10
(g11
tp139
Rp140
sg22
g60
sg62
g63
(g64
(I0
tp141
g66
tp142
Rp143
(I1
(L4L
L3L
tp144
g73
I00
S'\x01\x01\x01\x01\x01\x01\x01\x01\x01\x01\x01\x01'
p145
tp146
bsg78
Finf
sbsssg22
g60
sg62
g63
(g64
(I0
tp147
g66
tp148
Rp149
(I1
(L4L
L3L
tp150
g73
I00
S'\x01\x00\x00\x01\x00\x00\x01\x01\x01\x01\x01\x01'
p151
tp152
bsg78
I-3954
sbssI2
(dp153
g0
(g15
g2
Ntp154
Rp155
(dp156
g19
I0
sg20
I0
sg21
I2
sg22
g0
(g23
g2
Ntp157
Rp158
(dp159
g27
I4
sg28
I3
sbsg29
I1
sbg0
(g1
g2
Ntp160
Rp161
(dp162
g6
g31
sg7
I-2957
sg8
L2494L
sg9
g10
(g11
tp163
Rp164
sg22
g60
sg62
g63
(g64
(I0
tp165
g66
tp166
Rp167
(I1
(L4L
L3L
tp168
g73
I00
S'\x01\x00\x00\x01\x01\x00\x01\x01\x01\x01\x01\x00'
p169
tp170
bsg78
I-2957
sbsg0
(g15
g2
Ntp171
Rp172
(dp173
g19
I0
sg20
I2
sg21
I2
sg22
g0
(g23
g2
Ntp174
Rp175
(dp176
g27
I4
sg28
I3
sbsg29
I1
sbg0
(g1
g2
Ntp177
Rp178
(dp179
g6
g31
sg7
I-2955
sg8
L2429L
sg9
g10
(g11
tp180
Rp181
sg22
g60
sg62
g63
(g64
(I0
tp182
g66
tp183
Rp184
(I1
(L4L
L3L
tp185
g73
I00
S'\x01\x00\x00\x01\x00\x01\x01\x01\x01\x01\x00\x01'
p186
tp187
bsg78
I-2955
sbssI3
(dp188
g0
(g15
g2
Ntp189
Rp190
(dp191
g19
I0
sg20
I0
sg21
I3
sg22
g0
(g23
g2
Ntp192
Rp193
(dp194
g27
I4
sg28
I3
sbsg29
I1
sbg0
(g1
g2
Ntp195
Rp196
(dp197
g6
g31
sg7
I-1957
sg8
L2550L
sg9
g10
(g11
tp198
Rp199
sg22
g60
sg62
g63
(g64
(I0
tp200
g66
tp201
Rp202
(I1
(L4L
L3L
tp203
g73
I00
S'\x01\x00\x00\x01\x01\x01\x01\x01\x00\x01\x01\x00'
p204
tp205
bsg78
I-1957
sbsg0
(g15
g2
Ntp206
Rp207
(dp208
g19
I0
sg20
I2
sg21
I3
sg22
g0
(g23
g2
Ntp209
Rp210
(dp211
g27
I4
sg28
I3
sbsg29
I1
sbg0
(g1
g2
Ntp212
Rp213
(dp214
g6
g31
sg7
Finf
sg8
L2415L
sg9
g10
(g11
tp215
Rp216
I3
(dp217
g0
(g15
g2
Ntp218
Rp219
(dp220
g19
I1
sg20
I0
sg21
I3
sg22
g0
(g23
g2
Ntp221
Rp222
(dp223
g27
I4
sg28
I3
sbsg29
I1
sbg0
(g1
g2
Ntp224
Rp225
(dp226
g6
g213
sg7
Finf
sg8
L4095L
sg9
g10
(g11
tp227
Rp228
sg22
g60
sg62
g63
(g64
(I0
tp229
g66
tp230
Rp231
(I1
(L4L
L3L
tp232
g73
I00
S'\x01\x01\x01\x01\x01\x01\x01\x01\x01\x01\x01\x01'
p233
tp234
bsg78
Finf
sbsssg22
g60
sg62
g63
(g64
(I0
tp235
g66
tp236
Rp237
(I1
(L4L
L3L
tp238
g73
I00
S'\x01\x00\x00\x01\x00\x01\x01\x00\x01\x01\x01\x01'
p239
tp240
bsg78
I-3955
sbssI4
(dp241
g0
(g15
g2
Ntp242
Rp243
(dp244
g19
I0
sg20
I0
sg21
I4
sg22
g0
(g23
g2
Ntp245
Rp246
(dp247
g27
I4
sg28
I3
sbsg29
I1
sbg0
(g1
g2
Ntp248
Rp249
(dp250
g6
g31
sg7
I-1955
sg8
L2541L
sg9
g10
(g11
tp251
Rp252
sg22
g60
sg62
g63
(g64
(I0
tp253
g66
tp254
Rp255
(I1
(L4L
L3L
tp256
g73
I00
S'\x01\x00\x00\x01\x01\x01\x01\x00\x01\x01\x00\x01'
p257
tp258
bsg78
I-1955
sbsg0
(g15
g2
Ntp259
Rp260
(dp261
g19
I0
sg20
I2
sg21
I4
sg22
g0
(g23
g2
Ntp262
Rp263
(dp264
g27
I4
sg28
I3
sbsg29
I1
sbg0
(g1
g2
Ntp265
Rp266
(dp267
g6
g31
sg7
Finf
sg8
L2487L
sg9
g10
(g11
tp268
Rp269
I4
(dp270
g0
(g15
g2
Ntp271
Rp272
(dp273
g19
I1
sg20
I0
sg21
I4
sg22
g0
(g23
g2
Ntp274
Rp275
(dp276
g27
I4
sg28
I3
sbsg29
I1
sbg0
(g1
g2
Ntp277
Rp278
(dp279
g6
g266
sg7
Finf
sg8
L4095L
sg9
g10
(g11
tp280
Rp281
sg22
g60
sg62
g63
(g64
(I0
tp282
g66
tp283
Rp284
(I1
(L4L
L3L
tp285
g73
I00
S'\x01\x01\x01\x01\x01\x01\x01\x01\x01\x01\x01\x01'
p286
tp287
bsg78
Finf
sbsssg22
g60
sg62
g63
(g64
(I0
tp288
g66
tp289
Rp290
(I1
(L4L
L3L
tp291
g73
I00
S'\x01\x00\x00\x01\x01\x00\x01\x01\x00\x01\x01\x01'
p292
tp293
bsg78
I-3957
sbssI5
(dp294
g0
(g15
g2
Ntp295
Rp296
(dp297
g19
I0
sg20
I0
sg21
I5
sg22
g0
(g23
g2
Ntp298
Rp299
(dp300
g27
I4
sg28
I3
sbsg29
I1
sbg0
(g1
g2
Ntp301
Rp302
(dp303
g6
g31
sg7
I-2956
sg8
L2493L
sg9
g10
(g11
tp304
Rp305
sg22
g60
sg62
g63
(g64
(I0
tp306
g66
tp307
Rp308
(I1
(L4L
L3L
tp309
g73
I00
S'\x01\x00\x00\x01\x01\x00\x01\x01\x01\x01\x00\x01'
p310
tp311
bsg78
I-2956
sbssI6
(dp312
g0
(g15
g2
Ntp313
Rp314
(dp315
g19
I0
sg20
I0
sg21
I6
sg22
g0
(g23
g2
Ntp316
Rp317
(dp318
g27
I4
sg28
I3
sbsg29
I1
sbg0
(g1
g2
Ntp319
Rp320
(dp321
g6
g31
sg7
I-2956
sg8
L2430L
sg9
g10
(g11
tp322
Rp323
sg22
g60
sg62
g63
(g64
(I0
tp324
g66
tp325
Rp326
(I1
(L4L
L3L
tp327
g73
I00
S'\x01\x00\x00\x01\x00\x01\x01\x01\x01\x01\x01\x00'
p328
tp329
bsg78
I-2956
sbsssg22
g60
sg62
g63
(g64
(I0
tp330
g66
tp331
Rp332
(I1
(L4L
L3L
tp333
g73
I00
S'\x01\x00\x00\x01\x00\x00\x01\x00\x00\x01\x00\x00'
p334
tp335
bsg78
I28
sbsg0
(g15
g2
Ntp336
Rp337
(dp338
g19
I0
sg20
I0
sg21
I0
sg22
g0
(g23
g2
Ntp339
Rp340
(dp341
g27
I4
sg28
I3
sbsg29
I1
sbg0
(g1
g2
Ntp342
Rp343
(dp344
g6
g4
sg7
Finf
sg8
L1170L
sg9
g10
(g11
tp345
Rp346
I0
(dp347
g0
(g15
g2
Ntp348
Rp349
(dp350
g19
I0
sg20
I0
sg21
I0
sg22
g40
sg29
I0
sbg0
(g1
g2
Ntp351
Rp352
(dp353
g6
g343
sg7
Finf
sg8
L3510L
sg9
g10
(g11
tp354
Rp355
I0
(dp356
g0
(g15
g2
Ntp357
Rp358
(dp359
g19
I0
sg20
I0
sg21
I0
sg22
g52
sg29
I2
sbg0
(g1
g2
Ntp360
Rp361
(dp362
g6
g352
sg7
Finf
sg8
L4095L
sg9
g10
(g11
tp363
Rp364
sg22
g60
sg62
g63
(g64
(I0
tp365
g66
tp366
Rp367
(I1
(L4L
L3L
tp368
g73
I00
S'\x01\x01\x01\x01\x01\x01\x01\x01\x01\x01\x01\x01'
p369
tp370
bsg78
Finf
sbsssg22
g60
sg62
g63
(g64
(I0
tp371
g66
tp372
Rp373
(I1
(L4L
L3L
tp374
g73
I00
S'\x01\x01\x00\x01\x01\x00\x01\x01\x00\x01\x01\x00'
p375
tp376
bsg78
I52
sbsg0
(g15
g2
Ntp377
Rp378
(dp379
g19
I0
sg20
I0
sg21
I0
sg22
g0
(g23
g2
Ntp380
Rp381
(dp382
g27
I4
sg28
I3
sbsg29
I2
sbg0
(g1
g2
Ntp383
Rp384
(dp385
g6
g343
sg7
Finf
sg8
L1755L
sg9
g10
(g11
tp386
Rp387
I0
(dp388
g0
(g15
g2
Ntp389
Rp390
(dp391
g19
I0
sg20
I0
sg21
I0
sg22
g52
sg29
I0
sbg0
(g1
g2
Ntp392
Rp393
(dp394
g6
g384
sg7
Finf
sg8
L4095L
sg9
g10
(g11
tp395
Rp396
sg22
g60
sg62
g63
(g64
(I0
tp397
g66
tp398
Rp399
(I1
(L4L
L3L
tp400
g73
I00
S'\x01\x01\x01\x01\x01\x01\x01\x01\x01\x01\x01\x01'
p401
tp402
bsg78
Finf
sbsssg22
g60
sg62
g63
(g64
(I0
tp403
g66
tp404
Rp405
(I1
(L4L
L3L
tp406
g73
I00
S'\x00\x01\x01\x00\x01\x01\x00\x01\x01\x00\x01\x01'
p407
tp408
bsg78
I52
sbsssg22
g60
sg62
g63
(g64
(I0
tp409
g66
tp410
Rp411
(I1
(L4L
L3L
tp412
g73
I00
S'\x00\x01\x00\x00\x01\x00\x00\x01\x00\x00\x01\x00'
p413
tp414
bsg78
I16
sbsg0
(g15
g2
Ntp415
Rp416
(dp417
g19
I0
sg20
I0
sg21
I0
sg22
g0
(g23
g2
Ntp418
Rp419
(dp420
g27
I4
sg28
I3
sbsg29
I2
sbg0
(g1
g2
Ntp421
Rp422
(dp423
g6
g4
sg7
Finf
sg8
L585L
sg9
g10
(g11
tp424
Rp425
I0
(dp426
g0
(g15
g2
Ntp427
Rp428
(dp429
g19
I0
sg20
I0
sg21
I0
sg22
g89
sg29
I0
sbg0
(g1
g2
Ntp430
Rp431
(dp432
g6
g422
sg7
Finf
sg8
L2925L
sg9
g10
(g11
tp433
Rp434
I0
(dp435
g0
(g15
g2
Ntp436
Rp437
(dp438
g19
I0
sg20
I0
sg21
I0
sg22
g52
sg29
I1
sbg0
(g1
g2
Ntp439
Rp440
(dp441
g6
g431
sg7
Finf
sg8
L4095L
sg9
g10
(g11
tp442
Rp443
sg22
g60
sg62
g63
(g64
(I0
tp444
g66
tp445
Rp446
(I1
(L4L
L3L
tp447
g73
I00
S'\x01\x01\x01\x01\x01\x01\x01\x01\x01\x01\x01\x01'
p448
tp449
bsg78
Finf
sbsssg22
g60
sg62
g63
(g64
(I0
tp450
g66
tp451
Rp452
(I1
(L4L
L3L
tp453
g73
I00
S'\x01\x00\x01\x01\x00\x01\x01\x00\x01\x01\x00\x01'
p454
tp455
bsg78
I56
sbsg0
(g15
g2
Ntp456
Rp457
(dp458
g19
I0
sg20
I0
sg21
I0
sg22
g381
sg29
I1
sbg0
(g1
g2
Ntp459
Rp460
(dp461
g6
g422
sg7
Finf
sg8
L1755L
sg9
g10
(g11
tp462
Rp463
I0
(dp464
g0
(g15
g2
Ntp465
Rp466
(dp467
g19
I0
sg20
I0
sg21
I0
sg22
g52
sg29
I0
sbg0
(g1
g2
Ntp468
Rp469
(dp470
g6
g460
sg7
Finf
sg8
L4095L
sg9
g10
(g11
tp471
Rp472
sg22
g60
sg62
g63
(g64
(I0
tp473
g66
tp474
Rp475
(I1
(L4L
L3L
tp476
g73
I00
S'\x01\x01\x01\x01\x01\x01\x01\x01\x01\x01\x01\x01'
p477
tp478
bsg78
Finf
sbsssg22
g60
sg62
g63
(g64
(I0
tp479
g66
tp480
Rp481
(I1
(L4L
L3L
tp482
g73
I00
S'\x00\x01\x01\x00\x01\x01\x00\x01\x01\x00\x01\x01'
p483
tp484
bsg78
I52
sbssI1
(dp485
g0
(g15
g2
Ntp486
Rp487
(dp488
g19
I0
sg20
I0
sg21
I1
sg22
g0
(g23
g2
Ntp489
Rp490
(dp491
g27
I4
sg28
I3
sbsg29
I0
sbg0
(g1
g2
Ntp492
Rp493
(dp494
g6
g422
sg7
Finf
sg8
L639L
sg9
g10
(g11
tp495
Rp496
I1
(dp497
g0
(g15
g2
Ntp498
Rp499
(dp500
g19
I2
sg20
I0
sg21
I1
sg22
g0
(g23
g2
Ntp501
Rp502
(dp503
g27
I4
sg28
I3
sbsg29
I0
sbg0
(g1
g2
Ntp504
Rp505
(dp506
g6
g493
sg7
Finf
sg8
L4095L
sg9
g10
(g11
tp507
Rp508
sg22
g60
sg62
g63
(g64
(I0
tp509
g66
tp510
Rp511
(I1
(L4L
L3L
tp512
g73
I00
S'\x01\x01\x01\x01\x01\x01\x01\x01\x01\x01\x01\x01'
p513
tp514
bsg78
Finf
sbsssg22
g60
sg62
g63
(g64
(I0
tp515
g66
tp516
Rp517
(I1
(L4L
L3L
tp518
g73
I00
S'\x00\x00\x01\x00\x00\x01\x01\x01\x01\x01\x01\x01'
p519
tp520
bsg78
I-3954
sbssI2
(dp521
g0
(g15
g2
Ntp522
Rp523
(dp524
g19
I0
sg20
I0
sg21
I2
sg22
g0
(g23
g2
Ntp525
Rp526
(dp527
g27
I4
sg28
I3
sbsg29
I0
sbg0
(g1
g2
Ntp528
Rp529
(dp530
g6
g422
sg7
I-2955
sg8
L893L
sg9
g10
(g11
tp531
Rp532
sg22
g60
sg62
g63
(g64
(I0
tp533
g66
tp534
Rp535
(I1
(L4L
L3L
tp536
g73
I00
S'\x00\x00\x01\x01\x00\x01\x01\x01\x01\x01\x00\x01'
p537
tp538
bsg78
I-2955
sbsg0
(g15
g2
Ntp539
Rp540
(dp541
g19
I0
sg20
I2
sg21
I2
sg22
g0
(g23
g2
Ntp542
Rp543
(dp544
g27
I4
sg28
I3
sbsg29
I0
sbg0
(g1
g2
Ntp545
Rp546
(dp547
g6
g422
sg7
I-2957
sg8
L763L
sg9
g10
(g11
tp548
Rp549
sg22
g60
sg62
g63
(g64
(I0
tp550
g66
tp551
Rp552
(I1
(L4L
L3L
tp553
g73
I00
S'\x00\x00\x01\x00\x01\x01\x01\x01\x01\x00\x01\x01'
p554
tp555
bsg78
I-2957
sbssI3
(dp556
g0
(g15
g2
Ntp557
Rp558
(dp559
g19
I0
sg20
I0
sg21
I3
sg22
g0
(g23
g2
Ntp560
Rp561
(dp562
g27
I4
sg28
I3
sbsg29
I0
sbg0
(g1
g2
Ntp563
Rp564
(dp565
g6
g422
sg7
I-1955
sg8
L1005L
sg9
g10
(g11
tp566
Rp567
sg22
g60
sg62
g63
(g64
(I0
tp568
g66
tp569
Rp570
(I1
(L4L
L3L
tp571
g73
I00
S'\x00\x00\x01\x01\x01\x01\x01\x00\x01\x01\x00\x01'
p572
tp573
bsg78
I-1955
sbsg0
(g15
g2
Ntp574
Rp575
(dp576
g19
I0
sg20
I2
sg21
I3
sg22
g0
(g23
g2
Ntp577
Rp578
(dp579
g27
I4
sg28
I3
sbsg29
I0
sbg0
(g1
g2
Ntp580
Rp581
(dp582
g6
g422
sg7
Finf
sg8
L735L
sg9
g10
(g11
tp583
Rp584
I3
(dp585
g0
(g15
g2
Ntp586
Rp587
(dp588
g19
I1
sg20
I0
sg21
I3
sg22
g0
(g23
g2
Ntp589
Rp590
(dp591
g27
I4
sg28
I3
sbsg29
I0
sbg0
(g1
g2
Ntp592
Rp593
(dp594
g6
g581
sg7
Finf
sg8
L4095L
sg9
g10
(g11
tp595
Rp596
sg22
g60
sg62
g63
(g64
(I0
tp597
g66
tp598
Rp599
(I1
(L4L
L3L
tp600
g73
I00
S'\x01\x01\x01\x01\x01\x01\x01\x01\x01\x01\x01\x01'
p601
tp602
bsg78
Finf
sbsssg22
g60
sg62
g63
(g64
(I0
tp603
g66
tp604
Rp605
(I1
(L4L
L3L
tp606
g73
I00
S'\x00\x00\x01\x00\x01\x01\x00\x01\x01\x01\x01\x01'
p607
tp608
bsg78
I-3957
sbssI4
(dp609
g0
(g15
g2
Ntp610
Rp611
(dp612
g19
I0
sg20
I0
sg21
I4
sg22
g0
(g23
g2
Ntp613
Rp614
(dp615
g27
I4
sg28
I3
sbsg29
I0
sbg0
(g1
g2
Ntp616
Rp617
(dp618
g6
g422
sg7
I-1957
sg8
L987L
sg9
g10
(g11
tp619
Rp620
sg22
g60
sg62
g63
(g64
(I0
tp621
g66
tp622
Rp623
(I1
(L4L
L3L
tp624
g73
I00
S'\x00\x00\x01\x01\x01\x01\x00\x01\x01\x00\x01\x01'
p625
tp626
bsg78
I-1957
sbsg0
(g15
g2
Ntp627
Rp628
(dp629
g19
I0
sg20
I2
sg21
I4
sg22
g0
(g23
g2
Ntp630
Rp631
(dp632
g27
I4
sg28
I3
sbsg29
I0
sbg0
(g1
g2
Ntp633
Rp634
(dp635
g6
g422
sg7
Finf
sg8
L879L
sg9
g10
(g11
tp636
Rp637
I4
(dp638
g0
(g15
g2
Ntp639
Rp640
(dp641
g19
I1
sg20
I0
sg21
I4
sg22
g0
(g23
g2
Ntp642
Rp643
(dp644
g27
I4
sg28
I3
sbsg29
I0
sbg0
(g1
g2
Ntp645
Rp646
(dp647
g6
g634
sg7
Finf
sg8
L4095L
sg9
g10
(g11
tp648
Rp649
sg22
g60
sg62
g63
(g64
(I0
tp650
g66
tp651
Rp652
(I1
(L4L
L3L
tp653
g73
I00
S'\x01\x01\x01\x01\x01\x01\x01\x01\x01\x01\x01\x01'
p654
tp655
bsg78
Finf
sbsssg22
g60
sg62
g63
(g64
(I0
tp656
g66
tp657
Rp658
(I1
(L4L
L3L
tp659
g73
I00
S'\x00\x00\x01\x01\x00\x01\x01\x00\x01\x01\x01\x01'
p660
tp661
bsg78
I-3955
sbssI5
(dp662
g0
(g15
g2
Ntp663
Rp664
(dp665
g19
I0
sg20
I0
sg21
I5
sg22
g0
(g23
g2
Ntp666
Rp667
(dp668
g27
I4
sg28
I3
sbsg29
I0
sbg0
(g1
g2
Ntp669
Rp670
(dp671
g6
g422
sg7
I-2956
sg8
L891L
sg9
g10
(g11
tp672
Rp673
sg22
g60
sg62
g63
(g64
(I0
tp674
g66
tp675
Rp676
(I1
(L4L
L3L
tp677
g73
I00
S'\x00\x00\x01\x01\x00\x01\x01\x01\x01\x00\x01\x01'
p678
tp679
bsg78
I-2956
sbssI6
(dp680
g0
(g15
g2
Ntp681
Rp682
(dp683
g19
I0
sg20
I0
sg21
I6
sg22
g0
(g23
g2
Ntp684
Rp685
(dp686
g27
I4
sg28
I3
sbsg29
I0
sbg0
(g1
g2
Ntp687
Rp688
(dp689
g6
g422
sg7
I-2956
sg8
L765L
sg9
g10
(g11
tp690
Rp691
sg22
g60
sg62
g63
(g64
(I0
tp692
g66
tp693
Rp694
(I1
(L4L
L3L
tp695
g73
I00
S'\x00\x00\x01\x00\x01\x01\x01\x01\x01\x01\x00\x01'
p696
tp697
bsg78
I-2956
sbsssg22
g60
sg62
g63
(g64
(I0
tp698
g66
tp699
Rp700
(I1
(L4L
L3L
tp701
g73
I00
S'\x00\x00\x01\x00\x00\x01\x00\x00\x01\x00\x00\x01'
p702
tp703
bsg78
I28
sbssI1
(dp704
g0
(g15
g2
Ntp705
Rp706
(dp707
g19
I0
sg20
I0
sg21
I1
sg22
g0
(g23
g2
Ntp708
Rp709
(dp710
g27
I4
sg28
I3
sbsg29
I0
sbg0
(g1
g2
Ntp711
Rp712
(dp713
g6
g4
sg7
Finf
sg8
L54L
sg9
g10
(g11
tp714
Rp715
I0
(dp716
g0
(g15
g2
Ntp717
Rp718
(dp719
g19
I0
sg20
I0
sg21
I0
sg22
g490
sg29
I2
sbg0
(g1
g2
Ntp720
Rp721
(dp722
g6
g712
sg7
Finf
sg8
L639L
sg9
g10
(g11
tp723
Rp724
I1
(dp725
g0
(g15
g2
Ntp726
Rp727
(dp728
g19
I2
sg20
I0
sg21
I1
sg22
g502
sg29
I0
sbg0
(g1
g2
Ntp729
Rp730
(dp731
g6
g721
sg7
Finf
sg8
L4095L
sg9
g10
(g11
tp732
Rp733
sg22
g60
sg62
g63
(g64
(I0
tp734
g66
tp735
Rp736
(I1
(L4L
L3L
tp737
g73
I00
S'\x01\x01\x01\x01\x01\x01\x01\x01\x01\x01\x01\x01'
p738
tp739
bsg78
Finf
sbsssg22
g60
sg62
g63
(g64
(I0
tp740
g66
tp741
Rp742
(I1
(L4L
L3L
tp743
g73
I00
S'\x00\x00\x01\x00\x00\x01\x01\x01\x01\x01\x01\x01'
p744
tp745
bsg78
I-3954
sbssI1
(dp746
g0
(g15
g2
Ntp747
Rp748
(dp749
g19
I2
sg20
I0
sg21
I1
sg22
g0
(g23
g2
Ntp750
Rp751
(dp752
g27
I4
sg28
I3
sbsg29
I0
sbg0
(g1
g2
Ntp753
Rp754
(dp755
g6
g712
sg7
Finf
sg8
L3510L
sg9
g10
(g11
tp756
Rp757
I0
(dp758
g0
(g15
g2
Ntp759
Rp760
(dp761
g19
I0
sg20
I0
sg21
I0
sg22
g502
sg29
I2
sbg0
(g1
g2
Ntp762
Rp763
(dp764
g6
g754
sg7
Finf
sg8
L4095L
sg9
g10
(g11
tp765
Rp766
sg22
g60
sg62
g63
(g64
(I0
tp767
g66
tp768
Rp769
(I1
(L4L
L3L
tp770
g73
I00
S'\x01\x01\x01\x01\x01\x01\x01\x01\x01\x01\x01\x01'
p771
tp772
bsg78
Finf
sbsssg22
g60
sg62
g63
(g64
(I0
tp773
g66
tp774
Rp775
(I1
(L4L
L3L
tp776
g73
I00
S'\x01\x01\x00\x01\x01\x00\x01\x01\x00\x01\x01\x00'
p777
tp778
bsg78
I52
sbsg0
(g15
g2
Ntp779
Rp780
(dp781
g19
I2
sg20
I0
sg21
I1
sg22
g0
(g23
g2
Ntp782
Rp783
(dp784
g27
I4
sg28
I3
sbsg29
I1
sbg0
(g1
g2
Ntp785
Rp786
(dp787
g6
g712
sg7
I-1950
sg8
L1782L
sg9
g10
(g11
tp788
Rp789
sg22
g60
sg62
g63
(g64
(I0
tp790
g66
tp791
Rp792
(I1
(L4L
L3L
tp793
g73
I00
S'\x00\x01\x01\x00\x01\x01\x01\x01\x00\x01\x01\x00'
p794
tp795
bsg78
I-1950
sbssI2
(dp796
g0
(g15
g2
Ntp797
Rp798
(dp799
g19
I2
sg20
I1
sg21
I2
sg22
g0
(g23
g2
Ntp800
Rp801
(dp802
g27
I4
sg28
I3
sbsg29
I0
sbg0
(g1
g2
Ntp803
Rp804
(dp805
g6
g712
sg7
I-1960
sg8
L1526L
sg9
g10
(g11
tp806
Rp807
sg22
g60
sg62
g63
(g64
(I0
tp808
g66
tp809
Rp810
(I1
(L4L
L3L
tp811
g73
I00
S'\x00\x01\x00\x01\x01\x01\x01\x01\x00\x01\x01\x00'
p812
tp813
bsg78
I-1960
sbsg0
(g15
g2
Ntp814
Rp815
(dp816
g19
I2
sg20
I3
sg21
I2
sg22
g0
(g23
g2
Ntp817
Rp818
(dp819
g27
I4
sg28
I3
sbsg29
I0
sbg0
(g1
g2
Ntp820
Rp821
(dp822
g6
g712
sg7
I-942
sg8
L3766L
sg9
g10
(g11
tp823
Rp824
sg22
g60
sg62
g63
(g64
(I0
tp825
g66
tp826
Rp827
(I1
(L4L
L3L
tp828
g73
I00
S'\x01\x01\x01\x00\x01\x00\x01\x01\x00\x01\x01\x00'
p829
tp830
bsg78
I-942
sbsg0
(g15
g2
Ntp831
Rp832
(dp833
g19
I1
sg20
I2
sg21
I2
sg22
g0
(g23
g2
Ntp834
Rp835
(dp836
g27
I4
sg28
I3
sbsg29
I1
sbg0
(g1
g2
Ntp837
Rp838
(dp839
g6
g712
sg7
I-2957
sg8
L766L
sg9
g10
(g11
tp840
Rp841
sg22
g60
sg62
g63
(g64
(I0
tp842
g66
tp843
Rp844
(I1
(L4L
L3L
tp845
g73
I00
S'\x00\x00\x01\x00\x01\x01\x01\x01\x01\x01\x01\x00'
p846
tp847
bsg78
I-2957
sbssI3
(dp848
g0
(g15
g2
Ntp849
Rp850
(dp851
g19
I2
sg20
I1
sg21
I3
sg22
g0
(g23
g2
Ntp852
Rp853
(dp854
g27
I4
sg28
I3
sbsg29
I0
sbg0
(g1
g2
Ntp855
Rp856
(dp857
g6
g712
sg7
I-1957
sg8
L2550L
sg9
g10
(g11
tp858
Rp859
sg22
g60
sg62
g63
(g64
(I0
tp860
g66
tp861
Rp862
(I1
(L4L
L3L
tp863
g73
I00
S'\x01\x00\x00\x01\x01\x01\x01\x01\x00\x01\x01\x00'
p864
tp865
bsg78
I-1957
sbsg0
(g15
g2
Ntp866
Rp867
(dp868
g19
I1
sg20
I3
sg21
I3
sg22
g0
(g23
g2
Ntp869
Rp870
(dp871
g27
I4
sg28
I3
sbsg29
I0
sbg0
(g1
g2
Ntp872
Rp873
(dp874
g6
g712
sg7
I-2965
sg8
L510L
sg9
g10
(g11
tp875
Rp876
sg22
g60
sg62
g63
(g64
(I0
tp877
g66
tp878
Rp879
(I1
(L4L
L3L
tp880
g73
I00
S'\x00\x00\x00\x01\x01\x01\x01\x01\x01\x01\x01\x00'
p881
tp882
bsg78
I-2965
sbssI4
(dp883
g0
(g15
g2
Ntp884
Rp885
(dp886
g19
I2
sg20
I1
sg21
I4
sg22
g0
(g23
g2
Ntp887
Rp888
(dp889
g27
I4
sg28
I3
sbsg29
I0
sbg0
(g1
g2
Ntp890
Rp891
(dp892
g6
g712
sg7
I-939
sg8
L3894L
sg9
g10
(g11
tp893
Rp894
sg22
g60
sg62
g63
(g64
(I0
tp895
g66
tp896
Rp897
(I1
(L4L
L3L
tp898
g73
I00
S'\x01\x01\x01\x01\x00\x00\x01\x01\x00\x01\x01\x00'
p899
tp900
bsg78
I-939
sbsg0
(g15
g2
Ntp901
Rp902
(dp903
g19
I0
sg20
I0
sg21
I4
sg22
g0
(g23
g2
Ntp904
Rp905
(dp906
g27
I4
sg28
I3
sbsg29
I1
sbg0
(g1
g2
Ntp907
Rp908
(dp909
g6
g712
sg7
Finf
sg8
L255L
sg9
g10
(g11
tp910
Rp911
I4
(dp912
g0
(g15
g2
Ntp913
Rp914
(dp915
g19
I2
sg20
I1
sg21
I4
sg22
g0
(g23
g2
Ntp916
Rp917
(dp918
g27
I4
sg28
I3
sbsg29
I0
sbg0
(g1
g2
Ntp919
Rp920
(dp921
g6
g908
sg7
Finf
sg8
L4095L
sg9
g10
(g11
tp922
Rp923
sg22
g60
sg62
g63
(g64
(I0
tp924
g66
tp925
Rp926
(I1
(L4L
L3L
tp927
g73
I00
S'\x01\x01\x01\x01\x01\x01\x01\x01\x01\x01\x01\x01'
p928
tp929
bsg78
Finf
sbsssg22
g60
sg62
g63
(g64
(I0
tp930
g66
tp931
Rp932
(I1
(L4L
L3L
tp933
g73
I00
S'\x00\x00\x00\x00\x01\x01\x01\x01\x01\x01\x01\x01'
p934
tp935
bsg78
I-3965
sbsg0
(g15
g2
Ntp936
Rp937
(dp938
g19
I2
sg20
I3
sg21
I4
sg22
g0
(g23
g2
Ntp939
Rp940
(dp941
g27
I4
sg28
I3
sbsg29
I0
sbg0
(g1
g2
Ntp942
Rp943
(dp944
g6
g712
sg7
I-1957
sg8
L1014L
sg9
g10
(g11
tp945
Rp946
sg22
g60
sg62
g63
(g64
(I0
tp947
g66
tp948
Rp949
(I1
(L4L
L3L
tp950
g73
I00
S'\x00\x00\x01\x01\x01\x01\x01\x01\x00\x01\x01\x00'
p951
tp952
bsg78
I-1957
sbssI5
(dp953
g0
(g15
g2
Ntp954
Rp955
(dp956
g19
I2
sg20
I1
sg21
I5
sg22
g0
(g23
g2
Ntp957
Rp958
(dp959
g27
I4
sg28
I3
sbsg29
I0
sbg0
(g1
g2
Ntp960
Rp961
(dp962
g6
g712
sg7
I-950
sg8
L1974L
sg9
g10
(g11
tp963
Rp964
sg22
g60
sg62
g63
(g64
(I0
tp965
g66
tp966
Rp967
(I1
(L4L
L3L
tp968
g73
I00
S'\x00\x01\x01\x01\x01\x00\x01\x01\x00\x01\x01\x00'
p969
tp970
bsg78
I-950
sbsg0
(g15
g2
Ntp971
Rp972
(dp973
g19
I1
sg20
I0
sg21
I5
sg22
g0
(g23
g2
Ntp974
Rp975
(dp976
g27
I4
sg28
I3
sbsg29
I1
sbg0
(g1
g2
Ntp977
Rp978
(dp979
g6
g712
sg7
I-2960
sg8
L1278L
sg9
g10
(g11
tp980
Rp981
sg22
g60
sg62
g63
(g64
(I0
tp982
g66
tp983
Rp984
(I1
(L4L
L3L
tp985
g73
I00
S'\x00\x01\x00\x00\x01\x01\x01\x01\x01\x01\x01\x00'
p986
tp987
bsg78
I-2960
sbssI6
(dp988
g0
(g15
g2
Ntp989
Rp990
(dp991
g19
I2
sg20
I1
sg21
I6
sg22
g0
(g23
g2
Ntp992
Rp993
(dp994
g27
I4
sg28
I3
sbsg29
I0
sbg0
(g1
g2
Ntp995
Rp996
(dp997
g6
g712
sg7
I-1952
sg8
L3318L
sg9
g10
(g11
tp998
Rp999
sg22
g60
sg62
g63
(g64
(I0
tp1000
g66
tp1001
Rp1002
(I1
(L4L
L3L
tp1003
g73
I00
S'\x01\x01\x00\x00\x01\x01\x01\x01\x00\x01\x01\x00'
p1004
tp1005
bsg78
I-1952
sbsssg22
g60
sg62
g63
(g64
(I0
tp1006
g66
tp1007
Rp1008
(I1
(L4L
L3L
tp1009
g73
I00
S'\x00\x00\x00\x00\x00\x00\x01\x01\x00\x01\x01\x00'
p1010
tp1011
bsg78
I-3986
sbsg0
(g15
g2
Ntp1012
Rp1013
(dp1014
g19
I0
sg20
I0
sg21
I1
sg22
g0
(g23
g2
Ntp1015
Rp1016
(dp1017
g27
I4
sg28
I3
sbsg29
I1
sbg0
(g1
g2
Ntp1018
Rp1019
(dp1020
g6
g4
sg7
Finf
sg8
L27L
sg9
g10
(g11
tp1021
Rp1022
I0
(dp1023
g0
(g15
g2
Ntp1024
Rp1025
(dp1026
g19
I0
sg20
I0
sg21
I0
sg22
g122
sg29
I0
sbg0
(g1
g2
Ntp1027
Rp1028
(dp1029
g6
g1019
sg7
Finf
sg8
L2367L
sg9
g10
(g11
tp1030
Rp1031
I1
(dp1032
g0
(g15
g2
Ntp1033
Rp1034
(dp1035
g19
I2
sg20
I0
sg21
I1
sg22
g134
sg29
I1
sbg0
(g1
g2
Ntp1036
Rp1037
(dp1038
g6
g1028
sg7
Finf
sg8
L4095L
sg9
g10
(g11
tp1039
Rp1040
sg22
g60
sg62
g63
(g64
(I0
tp1041
g66
tp1042
Rp1043
(I1
(L4L
L3L
tp1044
g73
I00
S'\x01\x01\x01\x01\x01\x01\x01\x01\x01\x01\x01\x01'
p1045
tp1046
bsg78
Finf
sbsssg22
g60
sg62
g63
(g64
(I0
tp1047
g66
tp1048
Rp1049
(I1
(L4L
L3L
tp1050
g73
I00
S'\x01\x00\x00\x01\x00\x00\x01\x01\x01\x01\x01\x01'
p1051
tp1052
bsg78
I-3954
sbssI1
(dp1053
g0
(g15
g2
Ntp1054
Rp1055
(dp1056
g19
I2
sg20
I0
sg21
I1
sg22
g0
(g23
g2
Ntp1057
Rp1058
(dp1059
g27
I4
sg28
I3
sbsg29
I0
sbg0
(g1
g2
Ntp1060
Rp1061
(dp1062
g6
g1019
sg7
I-1950
sg8
L3483L
sg9
g10
(g11
tp1063
Rp1064
sg22
g60
sg62
g63
(g64
(I0
tp1065
g66
tp1066
Rp1067
(I1
(L4L
L3L
tp1068
g73
I00
S'\x01\x01\x00\x01\x01\x00\x00\x01\x01\x00\x01\x01'
p1069
tp1070
bsg78
I-1950
sbsg0
(g15
g2
Ntp1071
Rp1072
(dp1073
g19
I2
sg20
I0
sg21
I1
sg22
g0
(g23
g2
Ntp1074
Rp1075
(dp1076
g27
I4
sg28
I3
sbsg29
I1
sbg0
(g1
g2
Ntp1077
Rp1078
(dp1079
g6
g1019
sg7
Finf
sg8
L1755L
sg9
g10
(g11
tp1080
Rp1081
I0
(dp1082
g0
(g15
g2
Ntp1083
Rp1084
(dp1085
g19
I0
sg20
I0
sg21
I0
sg22
g134
sg29
I0
sbg0
(g1
g2
Ntp1086
Rp1087
(dp1088
g6
g1078
sg7
Finf
sg8
L4095L
sg9
g10
(g11
tp1089
Rp1090
sg22
g60
sg62
g63
(g64
(I0
tp1091
g66
tp1092
Rp1093
(I1
(L4L
L3L
tp1094
g73
I00
S'\x01\x01\x01\x01\x01\x01\x01\x01\x01\x01\x01\x01'
p1095
tp1096
bsg78
Finf
sbsssg22
g60
sg62
g63
(g64
(I0
tp1097
g66
tp1098
Rp1099
(I1
(L4L
L3L
tp1100
g73
I00
S'\x00\x01\x01\x00\x01\x01\x00\x01\x01\x00\x01\x01'
p1101
tp1102
bsg78
I52
sbssI2
(dp1103
g0
(g15
g2
Ntp1104
Rp1105
(dp1106
g19
I2
sg20
I1
sg21
I2
sg22
g0
(g23
g2
Ntp1107
Rp1108
(dp1109
g27
I4
sg28
I3
sbsg29
I0
sbg0
(g1
g2
Ntp1110
Rp1111
(dp1112
g6
g1019
sg7
I-1960
sg8
L1499L
sg9
g10
(g11
tp1113
Rp1114
sg22
g60
sg62
g63
(g64
(I0
tp1115
g66
tp1116
Rp1117
(I1
(L4L
L3L
tp1118
g73
I00
S'\x00\x01\x00\x01\x01\x01\x00\x01\x01\x00\x01\x01'
p1119
tp1120
bsg78
I-1960
sbsg0
(g15
g2
Ntp1121
Rp1122
(dp1123
g19
I2
sg20
I3
sg21
I2
sg22
g0
(g23
g2
Ntp1124
Rp1125
(dp1126
g27
I4
sg28
I3
sbsg29
I0
sbg0
(g1
g2
Ntp1127
Rp1128
(dp1129
g6
g1019
sg7
I-942
sg8
L3739L
sg9
g10
(g11
tp1130
Rp1131
sg22
g60
sg62
g63
(g64
(I0
tp1132
g66
tp1133
Rp1134
(I1
(L4L
L3L
tp1135
g73
I00
S'\x01\x01\x01\x00\x01\x00\x00\x01\x01\x00\x01\x01'
p1136
tp1137
bsg78
I-942
sbsg0
(g15
g2
Ntp1138
Rp1139
(dp1140
g19
I1
sg20
I0
sg21
I2
sg22
g0
(g23
g2
Ntp1141
Rp1142
(dp1143
g27
I4
sg28
I3
sbsg29
I0
sbg0
(g1
g2
Ntp1144
Rp1145
(dp1146
g6
g1019
sg7
I-2957
sg8
L2491L
sg9
g10
(g11
tp1147
Rp1148
sg22
g60
sg62
g63
(g64
(I0
tp1149
g66
tp1150
Rp1151
(I1
(L4L
L3L
tp1152
g73
I00
S'\x01\x00\x00\x01\x01\x00\x01\x01\x01\x00\x01\x01'
p1153
tp1154
bsg78
I-2957
sbssI3
(dp1155
g0
(g15
g2
Ntp1156
Rp1157
(dp1158
g19
I0
sg20
I0
sg21
I3
sg22
g0
(g23
g2
Ntp1159
Rp1160
(dp1161
g27
I4
sg28
I3
sbsg29
I0
sbg0
(g1
g2
Ntp1162
Rp1163
(dp1164
g6
g1019
sg7
Finf
sg8
L447L
sg9
g10
(g11
tp1165
Rp1166
I3
(dp1167
g0
(g15
g2
Ntp1168
Rp1169
(dp1170
g19
I2
sg20
I3
sg21
I3
sg22
g0
(g23
g2
Ntp1171
Rp1172
(dp1173
g27
I4
sg28
I3
sbsg29
I0
sbg0
(g1
g2
Ntp1174
Rp1175
(dp1176
g6
g1163
sg7
Finf
sg8
L4095L
sg9
g10
(g11
tp1177
Rp1178
sg22
g60
sg62
g63
(g64
(I0
tp1179
g66
tp1180
Rp1181
(I1
(L4L
L3L
tp1182
g73
I00
S'\x01\x01\x01\x01\x01\x01\x01\x01\x01\x01\x01\x01'
p1183
tp1184
bsg78
Finf
sbsssg22
g60
sg62
g63
(g64
(I0
tp1185
g66
tp1186
Rp1187
(I1
(L4L
L3L
tp1188
g73
I00
S'\x00\x00\x00\x01\x01\x00\x01\x01\x01\x01\x01\x01'
p1189
tp1190
bsg78
I-3965
sbsg0
(g15
g2
Ntp1191
Rp1192
(dp1193
g19
I2
sg20
I1
sg21
I3
sg22
g0
(g23
g2
Ntp1194
Rp1195
(dp1196
g27
I4
sg28
I3
sbsg29
I0
sbg0
(g1
g2
Ntp1197
Rp1198
(dp1199
g6
g1019
sg7
I-1957
sg8
L2523L
sg9
g10
(g11
tp1200
Rp1201
sg22
g60
sg62
g63
(g64
(I0
tp1202
g66
tp1203
Rp1204
(I1
(L4L
L3L
tp1205
g73
I00
S'\x01\x00\x00\x01\x01\x01\x00\x01\x01\x00\x01\x01'
p1206
tp1207
bsg78
I-1957
sbsg0
(g15
g2
Ntp1208
Rp1209
(dp1210
g19
I2
sg20
I3
sg21
I3
sg22
g0
(g23
g2
Ntp1211
Rp1212
(dp1213
g27
I4
sg28
I3
sbsg29
I0
sbg0
(g1
g2
Ntp1214
Rp1215
(dp1216
g6
g1019
sg7
I-939
sg8
L3675L
sg9
g10
(g11
tp1217
Rp1218
sg22
g60
sg62
g63
(g64
(I0
tp1219
g66
tp1220
Rp1221
(I1
(L4L
L3L
tp1222
g73
I00
S'\x01\x01\x01\x00\x00\x01\x00\x01\x01\x00\x01\x01'
p1223
tp1224
bsg78
I-939
sbssI4
(dp1225
g0
(g15
g2
Ntp1226
Rp1227
(dp1228
g19
I2
sg20
I3
sg21
I4
sg22
g0
(g23
g2
Ntp1229
Rp1230
(dp1231
g27
I4
sg28
I3
sbsg29
I0
sbg0
(g1
g2
Ntp1232
Rp1233
(dp1234
g6
g1019
sg7
I-1957
sg8
L987L
sg9
g10
(g11
tp1235
Rp1236
sg22
g60
sg62
g63
(g64
(I0
tp1237
g66
tp1238
Rp1239
(I1
(L4L
L3L
tp1240
g73
I00
S'\x00\x00\x01\x01\x01\x01\x00\x01\x01\x00\x01\x01'
p1241
tp1242
bsg78
I-1957
sbsg0
(g15
g2
Ntp1243
Rp1244
(dp1245
g19
I1
sg20
I1
sg21
I4
sg22
g0
(g23
g2
Ntp1246
Rp1247
(dp1248
g27
I4
sg28
I3
sbsg29
I0
sbg0
(g1
g2
Ntp1249
Rp1250
(dp1251
g6
g1019
sg7
I-2965
sg8
L507L
sg9
g10
(g11
tp1252
Rp1253
sg22
g60
sg62
g63
(g64
(I0
tp1254
g66
tp1255
Rp1256
(I1
(L4L
L3L
tp1257
g73
I00
S'\x00\x00\x00\x01\x01\x01\x01\x01\x01\x00\x01\x01'
p1258
tp1259
bsg78
I-2965
sbssI5
(dp1260
g0
(g15
g2
Ntp1261
Rp1262
(dp1263
g19
I2
sg20
I1
sg21
I5
sg22
g0
(g23
g2
Ntp1264
Rp1265
(dp1266
g27
I4
sg28
I3
sbsg29
I0
sbg0
(g1
g2
Ntp1267
Rp1268
(dp1269
g6
g1019
sg7
I-1952
sg8
L1947L
sg9
g10
(g11
tp1270
Rp1271
sg22
g60
sg62
g63
(g64
(I0
tp1272
g66
tp1273
Rp1274
(I1
(L4L
L3L
tp1275
g73
I00
S'\x00\x01\x01\x01\x01\x00\x00\x01\x01\x00\x01\x01'
p1276
tp1277
bsg78
I-1952
sbssI6
(dp1278
g0
(g15
g2
Ntp1279
Rp1280
(dp1281
g19
I2
sg20
I1
sg21
I6
sg22
g0
(g23
g2
Ntp1282
Rp1283
(dp1284
g27
I4
sg28
I3
sbsg29
I0
sbg0
(g1
g2
Ntp1285
Rp1286
(dp1287
g6
g1019
sg7
I-950
sg8
L3291L
sg9
g10
(g11
tp1288
Rp1289
sg22
g60
sg62
g63
(g64
(I0
tp1290
g66
tp1291
Rp1292
(I1
(L4L
L3L
tp1293
g73
I00
S'\x01\x01\x00\x00\x01\x01\x00\x01\x01\x00\x01\x01'
p1294
tp1295
bsg78
I-950
sbsg0
(g15
g2
Ntp1296
Rp1297
(dp1298
g19
I1
sg20
I0
sg21
I6
sg22
g0
(g23
g2
Ntp1299
Rp1300
(dp1301
g27
I4
sg28
I3
sbsg29
I0
sbg0
(g1
g2
Ntp1302
Rp1303
(dp1304
g6
g1019
sg7
I-2960
sg8
L1467L
sg9
g10
(g11
tp1305
Rp1306
sg22
g60
sg62
g63
(g64
(I0
tp1307
g66
tp1308
Rp1309
(I1
(L4L
L3L
tp1310
g73
I00
S'\x00\x01\x00\x01\x01\x00\x01\x01\x01\x00\x01\x01'
p1311
tp1312
bsg78
I-2960
sbsssg22
g60
sg62
g63
(g64
(I0
tp1313
g66
tp1314
Rp1315
(I1
(L4L
L3L
tp1316
g73
I00
S'\x00\x00\x00\x00\x00\x00\x00\x01\x01\x00\x01\x01'
p1317
tp1318
bsg78
I-3986
sbssI2
(dp1319
g0
(g15
g2
Ntp1320
Rp1321
(dp1322
g19
I0
sg20
I0
sg21
I2
sg22
g0
(g23
g2
Ntp1323
Rp1324
(dp1325
g27
I4
sg28
I3
sbsg29
I0
sbg0
(g1
g2
Ntp1326
Rp1327
(dp1328
g6
g4
sg7
I63
sg8
L308L
sg9
g10
(g11
tp1329
Rp1330
I0
(dp1331
g0
(g15
g2
Ntp1332
Rp1333
(dp1334
g19
I0
sg20
I0
sg21
I0
sg22
g526
sg29
I2
sbg0
(g1
g2
Ntp1335
Rp1336
(dp1337
g6
g1327
sg7
I-2955
sg8
L893L
sg9
g10
(g11
tp1338
Rp1339
sg22
g60
sg62
g63
(g64
(I0
tp1340
g66
tp1341
Rp1342
(I1
(L4L
L3L
tp1343
g73
I00
S'\x00\x00\x01\x01\x00\x01\x01\x01\x01\x01\x00\x01'
p1344
tp1345
bsg78
I-2955
sbssI1
(dp1346
g0
(g15
g2
Ntp1347
Rp1348
(dp1349
g19
I2
sg20
I0
sg21
I1
sg22
g0
(g23
g2
Ntp1350
Rp1351
(dp1352
g27
I4
sg28
I3
sbsg29
I1
sbg0
(g1
g2
Ntp1353
Rp1354
(dp1355
g6
g1327
sg7
I-947
sg8
L2036L
sg9
g10
(g11
tp1356
Rp1357
sg22
g60
sg62
g63
(g64
(I0
tp1358
g66
tp1359
Rp1360
(I1
(L4L
L3L
tp1361
g73
I00
S'\x00\x01\x01\x01\x01\x01\x01\x01\x00\x01\x00\x00'
p1362
tp1363
bsg78
I-947
sbssI2
(dp1364
g0
(g15
g2
Ntp1365
Rp1366
(dp1367
g19
I2
sg20
I3
sg21
I2
sg22
g0
(g23
g2
Ntp1368
Rp1369
(dp1370
g27
I4
sg28
I3
sbsg29
I0
sbg0
(g1
g2
Ntp1371
Rp1372
(dp1373
g6
g1327
sg7
I63
sg8
L4020L
sg9
g10
(g11
tp1374
Rp1375
sg22
g60
sg62
g63
(g64
(I0
tp1376
g66
tp1377
Rp1378
(I1
(L4L
L3L
tp1379
g73
I00
S'\x01\x01\x01\x01\x01\x00\x01\x01\x00\x01\x00\x00'
p1380
tp1381
bsg78
I63
sbsg0
(g15
g2
Ntp1382
Rp1383
(dp1384
g19
I1
sg20
I2
sg21
I2
sg22
g0
(g23
g2
Ntp1385
Rp1386
(dp1387
g27
I4
sg28
I3
sbsg29
I1
sbg0
(g1
g2
Ntp1388
Rp1389
(dp1390
g6
g1327
sg7
I-1954
sg8
L1020L
sg9
g10
(g11
tp1391
Rp1392
sg22
g60
sg62
g63
(g64
(I0
tp1393
g66
tp1394
Rp1395
(I1
(L4L
L3L
tp1396
g73
I00
S'\x00\x00\x01\x01\x01\x01\x01\x01\x01\x01\x00\x00'
p1397
tp1398
bsg78
I-1954
sbssI3
(dp1399
g0
(g15
g2
Ntp1400
Rp1401
(dp1402
g19
I2
sg20
I3
sg21
I3
sg22
g0
(g23
g2
Ntp1403
Rp1404
(dp1405
g27
I4
sg28
I3
sbsg29
I0
sbg0
(g1
g2
Ntp1406
Rp1407
(dp1408
g6
g1327
sg7
I-938
sg8
L3956L
sg9
g10
(g11
tp1409
Rp1410
sg22
g60
sg62
g63
(g64
(I0
tp1411
g66
tp1412
Rp1413
(I1
(L4L
L3L
tp1414
g73
I00
S'\x01\x01\x01\x01\x00\x01\x01\x01\x00\x01\x00\x00'
p1415
tp1416
bsg78
I-938
sbssI4
(dp1417
g0
(g15
g2
Ntp1418
Rp1419
(dp1420
g19
I0
sg20
I0
sg21
I4
sg22
g0
(g23
g2
Ntp1421
Rp1422
(dp1423
g27
I4
sg28
I3
sbsg29
I1
sbg0
(g1
g2
Ntp1424
Rp1425
(dp1426
g6
g1327
sg7
I-2964
sg8
L509L
sg9
g10
(g11
tp1427
Rp1428
sg22
g60
sg62
g63
(g64
(I0
tp1429
g66
tp1430
Rp1431
(I1
(L4L
L3L
tp1432
g73
I00
S'\x00\x00\x00\x01\x01\x01\x01\x01\x01\x01\x00\x01'
p1433
tp1434
bsg78
I-2964
sbssI5
(dp1435
g0
(g15
g2
Ntp1436
Rp1437
(dp1438
g19
I1
sg20
I0
sg21
I5
sg22
g0
(g23
g2
Ntp1439
Rp1440
(dp1441
g27
I4
sg28
I3
sbsg29
I1
sbg0
(g1
g2
Ntp1442
Rp1443
(dp1444
g6
g1327
sg7
I-1957
sg8
L1532L
sg9
g10
(g11
tp1445
Rp1446
sg22
g60
sg62
g63
(g64
(I0
tp1447
g66
tp1448
Rp1449
(I1
(L4L
L3L
tp1450
g73
I00
S'\x00\x01\x00\x01\x01\x01\x01\x01\x01\x01\x00\x00'
p1451
tp1452
bsg78
I-1957
sbssI6
(dp1453
g0
(g15
g2
Ntp1454
Rp1455
(dp1456
g19
I2
sg20
I1
sg21
I6
sg22
g0
(g23
g2
Ntp1457
Rp1458
(dp1459
g27
I4
sg28
I3
sbsg29
I0
sbg0
(g1
g2
Ntp1460
Rp1461
(dp1462
g6
g1327
sg7
I-947
sg8
L3572L
sg9
g10
(g11
tp1463
Rp1464
sg22
g60
sg62
g63
(g64
(I0
tp1465
g66
tp1466
Rp1467
(I1
(L4L
L3L
tp1468
g73
I00
S'\x01\x01\x00\x01\x01\x01\x01\x01\x00\x01\x00\x00'
p1469
tp1470
bsg78
I-947
sbsssg22
g60
sg62
g63
(g64
(I0
tp1471
g66
tp1472
Rp1473
(I1
(L4L
L3L
tp1474
g73
I00
S'\x00\x00\x00\x01\x00\x00\x01\x01\x00\x01\x00\x00'
p1475
tp1476
bsg78
I-2985
sbsg0
(g15
g2
Ntp1477
Rp1478
(dp1479
g19
I0
sg20
I0
sg21
I2
sg22
g0
(g23
g2
Ntp1480
Rp1481
(dp1482
g27
I4
sg28
I3
sbsg29
I1
sbg0
(g1
g2
Ntp1483
Rp1484
(dp1485
g6
g4
sg7
I60
sg8
L154L
sg9
g10
(g11
tp1486
Rp1487
I0
(dp1488
g0
(g15
g2
Ntp1489
Rp1490
(dp1491
g19
I0
sg20
I0
sg21
I0
sg22
g158
sg29
I0
sbg0
(g1
g2
Ntp1492
Rp1493
(dp1494
g6
g1484
sg7
I-2957
sg8
L2494L
sg9
g10
(g11
tp1495
Rp1496
sg22
g60
sg62
g63
(g64
(I0
tp1497
g66
tp1498
Rp1499
(I1
(L4L
L3L
tp1500
g73
I00
S'\x01\x00\x00\x01\x01\x00\x01\x01\x01\x01\x01\x00'
p1501
tp1502
bsg78
I-2957
sbssI3
(dp1503
g0
(g15
g2
Ntp1504
Rp1505
(dp1506
g19
I2
sg20
I3
sg21
I3
sg22
g0
(g23
g2
Ntp1507
Rp1508
(dp1509
g27
I4
sg28
I3
sbsg29
I0
sbg0
(g1
g2
Ntp1510
Rp1511
(dp1512
g6
g1484
sg7
I60
sg8
L3802L
sg9
g10
(g11
tp1513
Rp1514
sg22
g60
sg62
g63
(g64
(I0
tp1515
g66
tp1516
Rp1517
(I1
(L4L
L3L
tp1518
g73
I00
S'\x01\x01\x01\x00\x01\x01\x00\x01\x01\x00\x01\x00'
p1519
tp1520
bsg78
I60
sbsg0
(g15
g2
Ntp1521
Rp1522
(dp1523
g19
I1
sg20
I0
sg21
I3
sg22
g0
(g23
g2
Ntp1524
Rp1525
(dp1526
g27
I4
sg28
I3
sbsg29
I0
sbg0
(g1
g2
Ntp1527
Rp1528
(dp1529
g6
g1484
sg7
I-1950
sg8
L3514L
sg9
g10
(g11
tp1530
Rp1531
sg22
g60
sg62
g63
(g64
(I0
tp1532
g66
tp1533
Rp1534
(I1
(L4L
L3L
tp1535
g73
I00
S'\x01\x01\x00\x01\x01\x00\x01\x01\x01\x00\x01\x00'
p1536
tp1537
bsg78
I-1950
sbssI4
(dp1538
g0
(g15
g2
Ntp1539
Rp1540
(dp1541
g19
I2
sg20
I1
sg21
I4
sg22
g0
(g23
g2
Ntp1542
Rp1543
(dp1544
g27
I4
sg28
I3
sbsg29
I0
sbg0
(g1
g2
Ntp1545
Rp1546
(dp1547
g6
g1484
sg7
I-942
sg8
L3994L
sg9
g10
(g11
tp1548
Rp1549
sg22
g60
sg62
g63
(g64
(I0
tp1550
g66
tp1551
Rp1552
(I1
(L4L
L3L
tp1553
g73
I00
S'\x01\x01\x01\x01\x01\x00\x00\x01\x01\x00\x01\x00'
p1554
tp1555
bsg78
I-942
sbsssg22
g60
sg62
g63
(g64
(I0
tp1556
g66
tp1557
Rp1558
(I1
(L4L
L3L
tp1559
g73
I00
S'\x00\x00\x00\x00\x01\x00\x00\x01\x01\x00\x01\x00'
p1560
tp1561
bsg78
I-2991
sbsg0
(g15
g2
Ntp1562
Rp1563
(dp1564
g19
I0
sg20
I1
sg21
I2
sg22
g0
(g23
g2
Ntp1565
Rp1566
(dp1567
g27
I4
sg28
I3
sbsg29
I0
sbg0
(g1
g2
Ntp1568
Rp1569
(dp1570
g6
g4
sg7
Finf
sg8
L23L
sg9
g10
(g11
tp1571
Rp1572
I1
(dp1573
g0
(g15
g2
Ntp1574
Rp1575
(dp1576
g19
I2
sg20
I0
sg21
I1
sg22
g0
(g23
g2
Ntp1577
Rp1578
(dp1579
g27
I4
sg28
I3
sbsg29
I0
sbg0
(g1
g2
Ntp1580
Rp1581
(dp1582
g6
g1569
sg7
I-3952
sg8
L3479L
sg9
g10
(g11
tp1583
Rp1584
sg22
g60
sg62
g63
(g64
(I0
tp1585
g66
tp1586
Rp1587
(I1
(L4L
L3L
tp1588
g73
I00
S'\x01\x01\x00\x01\x01\x00\x00\x01\x00\x01\x01\x01'
p1589
tp1590
bsg78
I-3952
sbsg0
(g15
g2
Ntp1591
Rp1592
(dp1593
g19
I2
sg20
I0
sg21
I1
sg22
g0
(g23
g2
Ntp1594
Rp1595
(dp1596
g27
I4
sg28
I3
sbsg29
I1
sbg0
(g1
g2
Ntp1597
Rp1598
(dp1599
g6
g1569
sg7
I-3952
sg8
L1751L
sg9
g10
(g11
tp1600
Rp1601
sg22
g60
sg62
g63
(g64
(I0
tp1602
g66
tp1603
Rp1604
(I1
(L4L
L3L
tp1605
g73
I00
S'\x00\x01\x01\x00\x01\x01\x00\x01\x00\x01\x01\x01'
p1606
tp1607
bsg78
I-3952
sbssI2
(dp1608
g0
(g15
g2
Ntp1609
Rp1610
(dp1611
g19
I2
sg20
I1
sg21
I2
sg22
g0
(g23
g2
Ntp1612
Rp1613
(dp1614
g27
I4
sg28
I3
sbsg29
I0
sbg0
(g1
g2
Ntp1615
Rp1616
(dp1617
g6
g1569
sg7
I-3964
sg8
L1495L
sg9
g10
(g11
tp1618
Rp1619
sg22
g60
sg62
g63
(g64
(I0
tp1620
g66
tp1621
Rp1622
(I1
(L4L
L3L
tp1623
g73
I00
S'\x00\x01\x00\x01\x01\x01\x00\x01\x00\x01\x01\x01'
p1624
tp1625
bsg78
I-3964
sbsg0
(g15
g2
Ntp1626
Rp1627
(dp1628
g19
I2
sg20
I3
sg21
I2
sg22
g0
(g23
g2
Ntp1629
Rp1630
(dp1631
g27
I4
sg28
I3
sbsg29
I0
sbg0
(g1
g2
Ntp1632
Rp1633
(dp1634
g6
g1569
sg7
I-3944
sg8
L3735L
sg9
g10
(g11
tp1635
Rp1636
sg22
g60
sg62
g63
(g64
(I0
tp1637
g66
tp1638
Rp1639
(I1
(L4L
L3L
tp1640
g73
I00
S'\x01\x01\x01\x00\x01\x00\x00\x01\x00\x01\x01\x01'
p1641
tp1642
bsg78
I-3944
sbsg0
(g15
g2
Ntp1643
Rp1644
(dp1645
g19
I1
sg20
I0
sg21
I2
sg22
g0
(g23
g2
Ntp1646
Rp1647
(dp1648
g27
I4
sg28
I3
sbsg29
I0
sbg0
(g1
g2
Ntp1649
Rp1650
(dp1651
g6
g1569
sg7
Finf
sg8
L2487L
sg9
g10
(g11
tp1652
Rp1653
I4
(dp1654
g0
(g15
g2
Ntp1655
Rp1656
(dp1657
g19
I1
sg20
I0
sg21
I4
sg22
g0
(g23
g2
Ntp1658
Rp1659
(dp1660
g27
I4
sg28
I3
sbsg29
I1
sbg0
(g1
g2
Ntp1661
Rp1662
(dp1663
g6
g1650
sg7
Finf
sg8
L4095L
sg9
g10
(g11
tp1664
Rp1665
sg22
g60
sg62
g63
(g64
(I0
tp1666
g66
tp1667
Rp1668
(I1
(L4L
L3L
tp1669
g73
I00
S'\x01\x01\x01\x01\x01\x01\x01\x01\x01\x01\x01\x01'
p1670
tp1671
bsg78
Finf
sbsssg22
g60
sg62
g63
(g64
(I0
tp1672
g66
tp1673
Rp1674
(I1
(L4L
L3L
tp1675
g73
I00
S'\x01\x00\x00\x01\x01\x00\x01\x01\x00\x01\x01\x01'
p1676
tp1677
bsg78
I-3957
sbsg0
(g15
g2
Ntp1678
Rp1679
(dp1680
g19
I1
sg20
I2
sg21
I2
sg22
g0
(g23
g2
Ntp1681
Rp1682
(dp1683
g27
I4
sg28
I3
sbsg29
I1
sbg0
(g1
g2
Ntp1684
Rp1685
(dp1686
g6
g1569
sg7
Finf
sg8
L735L
sg9
g10
(g11
tp1687
Rp1688
I3
(dp1689
g0
(g15
g2
Ntp1690
Rp1691
(dp1692
g19
I1
sg20
I0
sg21
I3
sg22
g0
(g23
g2
Ntp1693
Rp1694
(dp1695
g27
I4
sg28
I3
sbsg29
I0
sbg0
(g1
g2
Ntp1696
Rp1697
(dp1698
g6
g1685
sg7
Finf
sg8
L4095L
sg9
g10
(g11
tp1699
Rp1700
sg22
g60
sg62
g63
(g64
(I0
tp1701
g66
tp1702
Rp1703
(I1
(L4L
L3L
tp1704
g73
I00
S'\x01\x01\x01\x01\x01\x01\x01\x01\x01\x01\x01\x01'
p1705
tp1706
bsg78
Finf
sbsssg22
g60
sg62
g63
(g64
(I0
tp1707
g66
tp1708
Rp1709
(I1
(L4L
L3L
tp1710
g73
I00
S'\x00\x00\x01\x00\x01\x01\x00\x01\x01\x01\x01\x01'
p1711
tp1712
bsg78
I-3957
sbssI3
(dp1713
g0
(g15
g2
Ntp1714
Rp1715
(dp1716
g19
I2
sg20
I1
sg21
I3
sg22
g0
(g23
g2
Ntp1717
Rp1718
(dp1719
g27
I4
sg28
I3
sbsg29
I0
sbg0
(g1
g2
Ntp1720
Rp1721
(dp1722
g6
g1569
sg7
I-3961
sg8
L2519L
sg9
g10
(g11
tp1723
Rp1724
sg22
g60
sg62
g63
(g64
(I0
tp1725
g66
tp1726
Rp1727
(I1
(L4L
L3L
tp1728
g73
I00
S'\x01\x00\x00\x01\x01\x01\x00\x01\x00\x01\x01\x01'
p1729
tp1730
bsg78
I-3961
sbsg0
(g15
g2
Ntp1731
Rp1732
(dp1733
g19
I1
sg20
I0
sg21
I3
sg22
g0
(g23
g2
Ntp1734
Rp1735
(dp1736
g27
I4
sg28
I3
sbsg29
I0
sbg0
(g1
g2
Ntp1737
Rp1738
(dp1739
g6
g1569
sg7
I-3949
sg8
L3383L
sg9
g10
(g11
tp1740
Rp1741
sg22
g60
sg62
g63
(g64
(I0
tp1742
g66
tp1743
Rp1744
(I1
(L4L
L3L
tp1745
g73
I00
S'\x01\x01\x00\x01\x00\x00\x01\x01\x00\x01\x01\x01'
p1746
tp1747
bsg78
I-3949
sbsg0
(g15
g2
Ntp1748
Rp1749
(dp1750
g19
I1
sg20
I3
sg21
I3
sg22
g0
(g23
g2
Ntp1751
Rp1752
(dp1753
g27
I4
sg28
I3
sbsg29
I0
sbg0
(g1
g2
Ntp1754
Rp1755
(dp1756
g6
g1569
sg7
I-3967
sg8
L479L
sg9
g10
(g11
tp1757
Rp1758
sg22
g60
sg62
g63
(g64
(I0
tp1759
g66
tp1760
Rp1761
(I1
(L4L
L3L
tp1762
g73
I00
S'\x00\x00\x00\x01\x01\x01\x00\x01\x01\x01\x01\x01'
p1763
tp1764
bsg78
I-3967
sbssI4
(dp1765
g0
(g15
g2
Ntp1766
Rp1767
(dp1768
g19
I2
sg20
I3
sg21
I4
sg22
g0
(g23
g2
Ntp1769
Rp1770
(dp1771
g27
I4
sg28
I3
sbsg29
I0
sbg0
(g1
g2
Ntp1772
Rp1773
(dp1774
g6
g1569
sg7
I-3961
sg8
L983L
sg9
g10
(g11
tp1775
Rp1776
sg22
g60
sg62
g63
(g64
(I0
tp1777
g66
tp1778
Rp1779
(I1
(L4L
L3L
tp1780
g73
I00
S'\x00\x00\x01\x01\x01\x01\x00\x01\x00\x01\x01\x01'
p1781
tp1782
bsg78
I-3961
sbsg0
(g15
g2
Ntp1783
Rp1784
(dp1785
g19
I1
sg20
I0
sg21
I4
sg22
g0
(g23
g2
Ntp1786
Rp1787
(dp1788
g27
I4
sg28
I3
sbsg29
I1
sbg0
(g1
g2
Ntp1789
Rp1790
(dp1791
g6
g1569
sg7
I-3949
sg8
L1631L
sg9
g10
(g11
tp1792
Rp1793
sg22
g60
sg62
g63
(g64
(I0
tp1794
g66
tp1795
Rp1796
(I1
(L4L
L3L
tp1797
g73
I00
S'\x00\x01\x01\x00\x00\x01\x00\x01\x01\x01\x01\x01'
p1798
tp1799
bsg78
I-3949
sbsg0
(g15
g2
Ntp1800
Rp1801
(dp1802
g19
I1
sg20
I1
sg21
I4
sg22
g0
(g23
g2
Ntp1803
Rp1804
(dp1805
g27
I4
sg28
I3
sbsg29
I0
sbg0
(g1
g2
Ntp1806
Rp1807
(dp1808
g6
g1569
sg7
I-3967
sg8
L503L
sg9
g10
(g11
tp1809
Rp1810
sg22
g60
sg62
g63
(g64
(I0
tp1811
g66
tp1812
Rp1813
(I1
(L4L
L3L
tp1814
g73
I00
S'\x00\x00\x00\x01\x01\x01\x01\x01\x00\x01\x01\x01'
p1815
tp1816
bsg78
I-3967
sbssI5
(dp1817
g0
(g15
g2
Ntp1818
Rp1819
(dp1820
g19
I2
sg20
I1
sg21
I5
sg22
g0
(g23
g2
Ntp1821
Rp1822
(dp1823
g27
I4
sg28
I3
sbsg29
I0
sbg0
(g1
g2
Ntp1824
Rp1825
(dp1826
g6
g1569
sg7
I-3954
sg8
L1943L
sg9
g10
(g11
tp1827
Rp1828
sg22
g60
sg62
g63
(g64
(I0
tp1829
g66
tp1830
Rp1831
(I1
(L4L
L3L
tp1832
g73
I00
S'\x00\x01\x01\x01\x01\x00\x00\x01\x00\x01\x01\x01'
p1833
tp1834
bsg78
I-3954
sbsg0
(g15
g2
Ntp1835
Rp1836
(dp1837
g19
I1
sg20
I0
sg21
I5
sg22
g0
(g23
g2
Ntp1838
Rp1839
(dp1840
g27
I4
sg28
I3
sbsg29
I1
sbg0
(g1
g2
Ntp1841
Rp1842
(dp1843
g6
g1569
sg7
I-3960
sg8
L1247L
sg9
g10
(g11
tp1844
Rp1845
sg22
g60
sg62
g63
(g64
(I0
tp1846
g66
tp1847
Rp1848
(I1
(L4L
L3L
tp1849
g73
I00
S'\x00\x01\x00\x00\x01\x01\x00\x01\x01\x01\x01\x01'
p1850
tp1851
bsg78
I-3960
sbssI6
(dp1852
g0
(g15
g2
Ntp1853
Rp1854
(dp1855
g19
I2
sg20
I1
sg21
I6
sg22
g0
(g23
g2
Ntp1856
Rp1857
(dp1858
g27
I4
sg28
I3
sbsg29
I0
sbg0
(g1
g2
Ntp1859
Rp1860
(dp1861
g6
g1569
sg7
I-3954
sg8
L3287L
sg9
g10
(g11
tp1862
Rp1863
sg22
g60
sg62
g63
(g64
(I0
tp1864
g66
tp1865
Rp1866
(I1
(L4L
L3L
tp1867
g73
I00
S'\x01\x01\x00\x00\x01\x01\x00\x01\x00\x01\x01\x01'
p1868
tp1869
bsg78
I-3954
sbsg0
(g15
g2
Ntp1870
Rp1871
(dp1872
g19
I1
sg20
I0
sg21
I6
sg22
g0
(g23
g2
Ntp1873
Rp1874
(dp1875
g27
I4
sg28
I3
sbsg29
I0
sbg0
(g1
g2
Ntp1876
Rp1877
(dp1878
g6
g1569
sg7
I-3960
sg8
L1463L
sg9
g10
(g11
tp1879
Rp1880
sg22
g60
sg62
g63
(g64
(I0
tp1881
g66
tp1882
Rp1883
(I1
(L4L
L3L
tp1884
g73
I00
S'\x00\x01\x00\x01\x01\x00\x01\x01\x00\x01\x01\x01'
p1885
tp1886
bsg78
I-3960
sbsssg22
g60
sg62
g63
(g64
(I0
tp1887
g66
tp1888
Rp1889
(I1
(L4L
L3L
tp1890
g73
I00
S'\x00\x00\x00\x00\x00\x00\x00\x01\x00\x01\x01\x01'
p1891
tp1892
bsg78
I-7988
sbsg0
(g15
g2
Ntp1893
Rp1894
(dp1895
g19
I0
sg20
I2
sg21
I2
sg22
g0
(g23
g2
Ntp1896
Rp1897
(dp1898
g27
I4
sg28
I3
sbsg29
I0
sbg0
(g1
g2
Ntp1899
Rp1900
(dp1901
g6
g4
sg7
I60
sg8
L178L
sg9
g10
(g11
tp1902
Rp1903
I0
(dp1904
g0
(g15
g2
Ntp1905
Rp1906
(dp1907
g19
I0
sg20
I0
sg21
I0
sg22
g543
sg29
I2
sbg0
(g1
g2
Ntp1908
Rp1909
(dp1910
g6
g1900
sg7
I-2957
sg8
L763L
sg9
g10
(g11
tp1911
Rp1912
sg22
g60
sg62
g63
(g64
(I0
tp1913
g66
tp1914
Rp1915
(I1
(L4L
L3L
tp1916
g73
I00
S'\x00\x00\x01\x00\x01\x01\x01\x01\x01\x00\x01\x01'
p1917
tp1918
bsg78
I-2957
sbssI3
(dp1919
g0
(g15
g2
Ntp1920
Rp1921
(dp1922
g19
I2
sg20
I3
sg21
I3
sg22
g0
(g23
g2
Ntp1923
Rp1924
(dp1925
g27
I4
sg28
I3
sbsg29
I0
sbg0
(g1
g2
Ntp1926
Rp1927
(dp1928
g6
g1900
sg7
I-942
sg8
L3826L
sg9
g10
(g11
tp1929
Rp1930
sg22
g60
sg62
g63
(g64
(I0
tp1931
g66
tp1932
Rp1933
(I1
(L4L
L3L
tp1934
g73
I00
S'\x01\x01\x01\x00\x01\x01\x01\x01\x00\x00\x01\x00'
p1935
tp1936
bsg78
I-942
sbssI4
(dp1937
g0
(g15
g2
Ntp1938
Rp1939
(dp1940
g19
I2
sg20
I1
sg21
I4
sg22
g0
(g23
g2
Ntp1941
Rp1942
(dp1943
g27
I4
sg28
I3
sbsg29
I0
sbg0
(g1
g2
Ntp1944
Rp1945
(dp1946
g6
g1900
sg7
I60
sg8
L4018L
sg9
g10
(g11
tp1947
Rp1948
sg22
g60
sg62
g63
(g64
(I0
tp1949
g66
tp1950
Rp1951
(I1
(L4L
L3L
tp1952
g73
I00
S'\x01\x01\x01\x01\x01\x00\x01\x01\x00\x00\x01\x00'
p1953
tp1954
bsg78
I60
sbsg0
(g15
g2
Ntp1955
Rp1956
(dp1957
g19
I1
sg20
I0
sg21
I4
sg22
g0
(g23
g2
Ntp1958
Rp1959
(dp1960
g27
I4
sg28
I3
sbsg29
I1
sbg0
(g1
g2
Ntp1961
Rp1962
(dp1963
g6
g1900
sg7
I-1950
sg8
L1786L
sg9
g10
(g11
tp1964
Rp1965
sg22
g60
sg62
g63
(g64
(I0
tp1966
g66
tp1967
Rp1968
(I1
(L4L
L3L
tp1969
g73
I00
S'\x00\x01\x01\x00\x01\x01\x01\x01\x01\x00\x01\x00'
p1970
tp1971
bsg78
I-1950
sbsssg22
g60
sg62
g63
(g64
(I0
tp1972
g66
tp1973
Rp1974
(I1
(L4L
L3L
tp1975
g73
I00
S'\x00\x00\x00\x00\x01\x00\x01\x01\x00\x00\x01\x00'
p1976
tp1977
bsg78
I-2991
sbsg0
(g15
g2
Ntp1978
Rp1979
(dp1980
g19
I0
sg20
I2
sg21
I2
sg22
g0
(g23
g2
Ntp1981
Rp1982
(dp1983
g27
I4
sg28
I3
sbsg29
I1
sbg0
(g1
g2
Ntp1984
Rp1985
(dp1986
g6
g4
sg7
I63
sg8
L89L
sg9
g10
(g11
tp1987
Rp1988
I0
(dp1989
g0
(g15
g2
Ntp1990
Rp1991
(dp1992
g19
I0
sg20
I0
sg21
I0
sg22
g175
sg29
I0
sbg0
(g1
g2
Ntp1993
Rp1994
(dp1995
g6
g1985
sg7
I-2955
sg8
L2429L
sg9
g10
(g11
tp1996
Rp1997
sg22
g60
sg62
g63
(g64
(I0
tp1998
g66
tp1999
Rp2000
(I1
(L4L
L3L
tp2001
g73
I00
S'\x01\x00\x00\x01\x00\x01\x01\x01\x01\x01\x00\x01'
p2002
tp2003
bsg78
I-2955
sbssI1
(dp2004
g0
(g15
g2
Ntp2005
Rp2006
(dp2007
g19
I2
sg20
I0
sg21
I1
sg22
g0
(g23
g2
Ntp2008
Rp2009
(dp2010
g27
I4
sg28
I3
sbsg29
I0
sbg0
(g1
g2
Ntp2011
Rp2012
(dp2013
g6
g1985
sg7
I-947
sg8
L3545L
sg9
g10
(g11
tp2014
Rp2015
sg22
g60
sg62
g63
(g64
(I0
tp2016
g66
tp2017
Rp2018
(I1
(L4L
L3L
tp2019
g73
I00
S'\x01\x01\x00\x01\x01\x01\x00\x01\x01\x00\x00\x01'
p2020
tp2021
bsg78
I-947
sbssI2
(dp2022
g0
(g15
g2
Ntp2023
Rp2024
(dp2025
g19
I2
sg20
I3
sg21
I2
sg22
g0
(g23
g2
Ntp2026
Rp2027
(dp2028
g27
I4
sg28
I3
sbsg29
I0
sbg0
(g1
g2
Ntp2029
Rp2030
(dp2031
g6
g1985
sg7
I63
sg8
L3801L
sg9
g10
(g11
tp2032
Rp2033
sg22
g60
sg62
g63
(g64
(I0
tp2034
g66
tp2035
Rp2036
(I1
(L4L
L3L
tp2037
g73
I00
S'\x01\x01\x01\x00\x01\x01\x00\x01\x01\x00\x00\x01'
p2038
tp2039
bsg78
I63
sbsg0
(g15
g2
Ntp2040
Rp2041
(dp2042
g19
I1
sg20
I0
sg21
I2
sg22
g0
(g23
g2
Ntp2043
Rp2044
(dp2045
g27
I4
sg28
I3
sbsg29
I0
sbg0
(g1
g2
Ntp2046
Rp2047
(dp2048
g6
g1985
sg7
I-1954
sg8
L2553L
sg9
g10
(g11
tp2049
Rp2050
sg22
g60
sg62
g63
(g64
(I0
tp2051
g66
tp2052
Rp2053
(I1
(L4L
L3L
tp2054
g73
I00
S'\x01\x00\x00\x01\x01\x01\x01\x01\x01\x00\x00\x01'
p2055
tp2056
bsg78
I-1954
sbssI3
(dp2057
g0
(g15
g2
Ntp2058
Rp2059
(dp2060
g19
I0
sg20
I0
sg21
I3
sg22
g0
(g23
g2
Ntp2061
Rp2062
(dp2063
g27
I4
sg28
I3
sbsg29
I0
sbg0
(g1
g2
Ntp2064
Rp2065
(dp2066
g6
g1985
sg7
I-2964
sg8
L509L
sg9
g10
(g11
tp2067
Rp2068
sg22
g60
sg62
g63
(g64
(I0
tp2069
g66
tp2070
Rp2071
(I1
(L4L
L3L
tp2072
g73
I00
S'\x00\x00\x00\x01\x01\x01\x01\x01\x01\x01\x00\x01'
p2073
tp2074
bsg78
I-2964
sbssI4
(dp2075
g0
(g15
g2
Ntp2076
Rp2077
(dp2078
g19
I2
sg20
I1
sg21
I4
sg22
g0
(g23
g2
Ntp2079
Rp2080
(dp2081
g27
I4
sg28
I3
sbsg29
I0
sbg0
(g1
g2
Ntp2082
Rp2083
(dp2084
g6
g1985
sg7
I-938
sg8
L3929L
sg9
g10
(g11
tp2085
Rp2086
sg22
g60
sg62
g63
(g64
(I0
tp2087
g66
tp2088
Rp2089
(I1
(L4L
L3L
tp2090
g73
I00
S'\x01\x01\x01\x01\x00\x01\x00\x01\x01\x00\x00\x01'
p2091
tp2092
bsg78
I-938
sbssI5
(dp2093
g0
(g15
g2
Ntp2094
Rp2095
(dp2096
g19
I2
sg20
I1
sg21
I5
sg22
g0
(g23
g2
Ntp2097
Rp2098
(dp2099
g27
I4
sg28
I3
sbsg29
I0
sbg0
(g1
g2
Ntp2100
Rp2101
(dp2102
g6
g1985
sg7
I-947
sg8
L2009L
sg9
g10
(g11
tp2103
Rp2104
sg22
g60
sg62
g63
(g64
(I0
tp2105
g66
tp2106
Rp2107
(I1
(L4L
L3L
tp2108
g73
I00
S'\x00\x01\x01\x01\x01\x01\x00\x01\x01\x00\x00\x01'
p2109
tp2110
bsg78
I-947
sbssI6
(dp2111
g0
(g15
g2
Ntp2112
Rp2113
(dp2114
g19
I1
sg20
I0
sg21
I6
sg22
g0
(g23
g2
Ntp2115
Rp2116
(dp2117
g27
I4
sg28
I3
sbsg29
I0
sbg0
(g1
g2
Ntp2118
Rp2119
(dp2120
g6
g1985
sg7
I-1957
sg8
L1529L
sg9
g10
(g11
tp2121
Rp2122
sg22
g60
sg62
g63
(g64
(I0
tp2123
g66
tp2124
Rp2125
(I1
(L4L
L3L
tp2126
g73
I00
S'\x00\x01\x00\x01\x01\x01\x01\x01\x01\x00\x00\x01'
p2127
tp2128
bsg78
I-1957
sbsssg22
g60
sg62
g63
(g64
(I0
tp2129
g66
tp2130
Rp2131
(I1
(L4L
L3L
tp2132
g73
I00
S'\x00\x00\x00\x00\x00\x01\x00\x01\x01\x00\x00\x01'
p2133
tp2134
bsg78
I-2985
sbsg0
(g15
g2
Ntp2135
Rp2136
(dp2137
g19
I0
sg20
I3
sg21
I2
sg22
g0
(g23
g2
Ntp2138
Rp2139
(dp2140
g27
I4
sg28
I3
sbsg29
I0
sbg0
(g1
g2
Ntp2141
Rp2142
(dp2143
g6
g4
sg7
I-1941
sg8
L58L
sg9
g10
(g11
tp2144
Rp2145
I1
(dp2146
g0
(g15
g2
Ntp2147
Rp2148
(dp2149
g19
I2
sg20
I0
sg21
I1
sg22
g0
(g23
g2
Ntp2150
Rp2151
(dp2152
g27
I4
sg28
I3
sbsg29
I0
sbg0
(g1
g2
Ntp2153
Rp2154
(dp2155
g6
g2142
sg7
I-1950
sg8
L3514L
sg9
g10
(g11
tp2156
Rp2157
sg22
g60
sg62
g63
(g64
(I0
tp2158
g66
tp2159
Rp2160
(I1
(L4L
L3L
tp2161
g73
I00
S'\x01\x01\x00\x01\x01\x00\x01\x01\x01\x00\x01\x00'
p2162
tp2163
bsg78
I-1950
sbsg0
(g15
g2
Ntp2164
Rp2165
(dp2166
g19
I2
sg20
I0
sg21
I1
sg22
g0
(g23
g2
Ntp2167
Rp2168
(dp2169
g27
I4
sg28
I3
sbsg29
I1
sbg0
(g1
g2
Ntp2170
Rp2171
(dp2172
g6
g2142
sg7
I-1950
sg8
L1786L
sg9
g10
(g11
tp2173
Rp2174
sg22
g60
sg62
g63
(g64
(I0
tp2175
g66
tp2176
Rp2177
(I1
(L4L
L3L
tp2178
g73
I00
S'\x00\x01\x01\x00\x01\x01\x01\x01\x01\x00\x01\x00'
p2179
tp2180
bsg78
I-1950
sbssI2
(dp2181
g0
(g15
g2
Ntp2182
Rp2183
(dp2184
g19
I2
sg20
I1
sg21
I2
sg22
g0
(g23
g2
Ntp2185
Rp2186
(dp2187
g27
I4
sg28
I3
sbsg29
I0
sbg0
(g1
g2
Ntp2188
Rp2189
(dp2190
g6
g2142
sg7
I-1960
sg8
L1530L
sg9
g10
(g11
tp2191
Rp2192
sg22
g60
sg62
g63
(g64
(I0
tp2193
g66
tp2194
Rp2195
(I1
(L4L
L3L
tp2196
g73
I00
S'\x00\x01\x00\x01\x01\x01\x01\x01\x01\x00\x01\x00'
p2197
tp2198
bsg78
I-1960
sbsg0
(g15
g2
Ntp2199
Rp2200
(dp2201
g19
I2
sg20
I3
sg21
I2
sg22
g0
(g23
g2
Ntp2202
Rp2203
(dp2204
g27
I4
sg28
I3
sbsg29
I0
sbg0
(g1
g2
Ntp2205
Rp2206
(dp2207
g6
g2142
sg7
I-1944
sg8
L3770L
sg9
g10
(g11
tp2208
Rp2209
sg22
g60
sg62
g63
(g64
(I0
tp2210
g66
tp2211
Rp2212
(I1
(L4L
L3L
tp2213
g73
I00
S'\x01\x01\x01\x00\x01\x00\x01\x01\x01\x00\x01\x00'
p2214
tp2215
bsg78
I-1944
sbssI3
(dp2216
g0
(g15
g2
Ntp2217
Rp2218
(dp2219
g19
I2
sg20
I1
sg21
I3
sg22
g0
(g23
g2
Ntp2220
Rp2221
(dp2222
g27
I4
sg28
I3
sbsg29
I0
sbg0
(g1
g2
Ntp2223
Rp2224
(dp2225
g6
g2142
sg7
I-1957
sg8
L2554L
sg9
g10
(g11
tp2226
Rp2227
sg22
g60
sg62
g63
(g64
(I0
tp2228
g66
tp2229
Rp2230
(I1
(L4L
L3L
tp2231
g73
I00
S'\x01\x00\x00\x01\x01\x01\x01\x01\x01\x00\x01\x00'
p2232
tp2233
bsg78
I-1957
sbsg0
(g15
g2
Ntp2234
Rp2235
(dp2236
g19
I2
sg20
I3
sg21
I3
sg22
g0
(g23
g2
Ntp2237
Rp2238
(dp2239
g27
I4
sg28
I3
sbsg29
I0
sbg0
(g1
g2
Ntp2240
Rp2241
(dp2242
g6
g2142
sg7
I-1941
sg8
L3706L
sg9
g10
(g11
tp2243
Rp2244
sg22
g60
sg62
g63
(g64
(I0
tp2245
g66
tp2246
Rp2247
(I1
(L4L
L3L
tp2248
g73
I00
S'\x01\x01\x01\x00\x00\x01\x01\x01\x01\x00\x01\x00'
p2249
tp2250
bsg78
I-1941
sbssI4
(dp2251
g0
(g15
g2
Ntp2252
Rp2253
(dp2254
g19
I2
sg20
I1
sg21
I4
sg22
g0
(g23
g2
Ntp2255
Rp2256
(dp2257
g27
I4
sg28
I3
sbsg29
I0
sbg0
(g1
g2
Ntp2258
Rp2259
(dp2260
g6
g2142
sg7
I-1941
sg8
L3898L
sg9
g10
(g11
tp2261
Rp2262
sg22
g60
sg62
g63
(g64
(I0
tp2263
g66
tp2264
Rp2265
(I1
(L4L
L3L
tp2266
g73
I00
S'\x01\x01\x01\x01\x00\x00\x01\x01\x01\x00\x01\x00'
p2267
tp2268
bsg78
I-1941
sbsg0
(g15
g2
Ntp2269
Rp2270
(dp2271
g19
I2
sg20
I3
sg21
I4
sg22
g0
(g23
g2
Ntp2272
Rp2273
(dp2274
g27
I4
sg28
I3
sbsg29
I0
sbg0
(g1
g2
Ntp2275
Rp2276
(dp2277
g6
g2142
sg7
I-1957
sg8
L1018L
sg9
g10
(g11
tp2278
Rp2279
sg22
g60
sg62
g63
(g64
(I0
tp2280
g66
tp2281
Rp2282
(I1
(L4L
L3L
tp2283
g73
I00
S'\x00\x00\x01\x01\x01\x01\x01\x01\x01\x00\x01\x00'
p2284
tp2285
bsg78
I-1957
sbssI5
(dp2286
g0
(g15
g2
Ntp2287
Rp2288
(dp2289
g19
I2
sg20
I1
sg21
I5
sg22
g0
(g23
g2
Ntp2290
Rp2291
(dp2292
g27
I4
sg28
I3
sbsg29
I0
sbg0
(g1
g2
Ntp2293
Rp2294
(dp2295
g6
g2142
sg7
I-1952
sg8
L1978L
sg9
g10
(g11
tp2296
Rp2297
sg22
g60
sg62
g63
(g64
(I0
tp2298
g66
tp2299
Rp2300
(I1
(L4L
L3L
tp2301
g73
I00
S'\x00\x01\x01\x01\x01\x00\x01\x01\x01\x00\x01\x00'
p2302
tp2303
bsg78
I-1952
sbssI6
(dp2304
g0
(g15
g2
Ntp2305
Rp2306
(dp2307
g19
I2
sg20
I1
sg21
I6
sg22
g0
(g23
g2
Ntp2308
Rp2309
(dp2310
g27
I4
sg28
I3
sbsg29
I0
sbg0
(g1
g2
Ntp2311
Rp2312
(dp2313
g6
g2142
sg7
I-1952
sg8
L3322L
sg9
g10
(g11
tp2314
Rp2315
sg22
g60
sg62
g63
(g64
(I0
tp2316
g66
tp2317
Rp2318
(I1
(L4L
L3L
tp2319
g73
I00
S'\x01\x01\x00\x00\x01\x01\x01\x01\x01\x00\x01\x00'
p2320
tp2321
bsg78
I-1952
sbsssg22
g60
sg62
g63
(g64
(I0
tp2322
g66
tp2323
Rp2324
(I1
(L4L
L3L
tp2325
g73
I00
S'\x00\x00\x00\x00\x00\x00\x01\x01\x01\x00\x01\x00'
p2326
tp2327
bsg78
I-5988
sbssI3
(dp2328
g0
(g15
g2
Ntp2329
Rp2330
(dp2331
g19
I0
sg20
I2
sg21
I3
sg22
g0
(g23
g2
Ntp2332
Rp2333
(dp2334
g27
I4
sg28
I3
sbsg29
I0
sbg0
(g1
g2
Ntp2335
Rp2336
(dp2337
g6
g4
sg7
Finf
sg8
L150L
sg9
g10
(g11
tp2338
Rp2339
I0
(dp2340
g0
(g15
g2
Ntp2341
Rp2342
(dp2343
g19
I0
sg20
I0
sg21
I0
sg22
g578
sg29
I2
sbg0
(g1
g2
Ntp2344
Rp2345
(dp2346
g6
g2336
sg7
Finf
sg8
L735L
sg9
g10
(g11
tp2347
Rp2348
I3
(dp2349
g0
(g15
g2
Ntp2350
Rp2351
(dp2352
g19
I1
sg20
I0
sg21
I3
sg22
g590
sg29
I0
sbg0
(g1
g2
Ntp2353
Rp2354
(dp2355
g6
g2345
sg7
Finf
sg8
L4095L
sg9
g10
(g11
tp2356
Rp2357
sg22
g60
sg62
g63
(g64
(I0
tp2358
g66
tp2359
Rp2360
(I1
(L4L
L3L
tp2361
g73
I00
S'\x01\x01\x01\x01\x01\x01\x01\x01\x01\x01\x01\x01'
p2362
tp2363
bsg78
Finf
sbsssg22
g60
sg62
g63
(g64
(I0
tp2364
g66
tp2365
Rp2366
(I1
(L4L
L3L
tp2367
g73
I00
S'\x00\x00\x01\x00\x01\x01\x00\x01\x01\x01\x01\x01'
p2368
tp2369
bsg78
I-3957
sbssI3
(dp2370
g0
(g15
g2
Ntp2371
Rp2372
(dp2373
g19
I2
sg20
I3
sg21
I3
sg22
g0
(g23
g2
Ntp2374
Rp2375
(dp2376
g27
I4
sg28
I3
sbsg29
I0
sbg0
(g1
g2
Ntp2377
Rp2378
(dp2379
g6
g2336
sg7
I-1942
sg8
L3798L
sg9
g10
(g11
tp2380
Rp2381
sg22
g60
sg62
g63
(g64
(I0
tp2382
g66
tp2383
Rp2384
(I1
(L4L
L3L
tp2385
g73
I00
S'\x01\x01\x01\x00\x01\x01\x00\x01\x00\x01\x01\x00'
p2386
tp2387
bsg78
I-1942
sbsg0
(g15
g2
Ntp2388
Rp2389
(dp2390
g19
I1
sg20
I0
sg21
I3
sg22
g0
(g23
g2
Ntp2391
Rp2392
(dp2393
g27
I4
sg28
I3
sbsg29
I0
sbg0
(g1
g2
Ntp2394
Rp2395
(dp2396
g6
g2336
sg7
Finf
sg8
L3510L
sg9
g10
(g11
tp2397
Rp2398
I0
(dp2399
g0
(g15
g2
Ntp2400
Rp2401
(dp2402
g19
I0
sg20
I0
sg21
I0
sg22
g590
sg29
I2
sbg0
(g1
g2
Ntp2403
Rp2404
(dp2405
g6
g2395
sg7
Finf
sg8
L4095L
sg9
g10
(g11
tp2406
Rp2407
sg22
g60
sg62
g63
(g64
(I0
tp2408
g66
tp2409
Rp2410
(I1
(L4L
L3L
tp2411
g73
I00
S'\x01\x01\x01\x01\x01\x01\x01\x01\x01\x01\x01\x01'
p2412
tp2413
bsg78
Finf
sbsssg22
g60
sg62
g63
(g64
(I0
tp2414
g66
tp2415
Rp2416
(I1
(L4L
L3L
tp2417
g73
I00
S'\x01\x01\x00\x01\x01\x00\x01\x01\x00\x01\x01\x00'
p2418
tp2419
bsg78
I52
sbssI4
(dp2420
g0
(g15
g2
Ntp2421
Rp2422
(dp2423
g19
I2
sg20
I1
sg21
I4
sg22
g0
(g23
g2
Ntp2424
Rp2425
(dp2426
g27
I4
sg28
I3
sbsg29
I0
sbg0
(g1
g2
Ntp2427
Rp2428
(dp2429
g6
g2336
sg7
I-942
sg8
L3990L
sg9
g10
(g11
tp2430
Rp2431
sg22
g60
sg62
g63
(g64
(I0
tp2432
g66
tp2433
Rp2434
(I1
(L4L
L3L
tp2435
g73
I00
S'\x01\x01\x01\x01\x01\x00\x00\x01\x00\x01\x01\x00'
p2436
tp2437
bsg78
I-942
sbsg0
(g15
g2
Ntp2438
Rp2439
(dp2440
g19
I1
sg20
I0
sg21
I4
sg22
g0
(g23
g2
Ntp2441
Rp2442
(dp2443
g27
I4
sg28
I3
sbsg29
I1
sbg0
(g1
g2
Ntp2444
Rp2445
(dp2446
g6
g2336
sg7
I-2950
sg8
L1758L
sg9
g10
(g11
tp2447
Rp2448
sg22
g60
sg62
g63
(g64
(I0
tp2449
g66
tp2450
Rp2451
(I1
(L4L
L3L
tp2452
g73
I00
S'\x00\x01\x01\x00\x01\x01\x00\x01\x01\x01\x01\x00'
p2453
tp2454
bsg78
I-2950
sbsssg22
g60
sg62
g63
(g64
(I0
tp2455
g66
tp2456
Rp2457
(I1
(L4L
L3L
tp2458
g73
I00
S'\x00\x00\x00\x00\x01\x00\x00\x01\x00\x01\x01\x00'
p2459
tp2460
bsg78
I-3991
sbsg0
(g15
g2
Ntp2461
Rp2462
(dp2463
g19
I0
sg20
I2
sg21
I3
sg22
g0
(g23
g2
Ntp2464
Rp2465
(dp2466
g27
I4
sg28
I3
sbsg29
I1
sbg0
(g1
g2
Ntp2467
Rp2468
(dp2469
g6
g4
sg7
Finf
sg8
L75L
sg9
g10
(g11
tp2470
Rp2471
I0
(dp2472
g0
(g15
g2
Ntp2473
Rp2474
(dp2475
g19
I0
sg20
I0
sg21
I0
sg22
g210
sg29
I0
sbg0
(g1
g2
Ntp2476
Rp2477
(dp2478
g6
g2468
sg7
Finf
sg8
L2415L
sg9
g10
(g11
tp2479
Rp2480
I3
(dp2481
g0
(g15
g2
Ntp2482
Rp2483
(dp2484
g19
I1
sg20
I0
sg21
I3
sg22
g222
sg29
I1
sbg0
(g1
g2
Ntp2485
Rp2486
(dp2487
g6
g2477
sg7
Finf
sg8
L4095L
sg9
g10
(g11
tp2488
Rp2489
sg22
g60
sg62
g63
(g64
(I0
tp2490
g66
tp2491
Rp2492
(I1
(L4L
L3L
tp2493
g73
I00
S'\x01\x01\x01\x01\x01\x01\x01\x01\x01\x01\x01\x01'
p2494
tp2495
bsg78
Finf
sbsssg22
g60
sg62
g63
(g64
(I0
tp2496
g66
tp2497
Rp2498
(I1
(L4L
L3L
tp2499
g73
I00
S'\x01\x00\x00\x01\x00\x01\x01\x00\x01\x01\x01\x01'
p2500
tp2501
bsg78
I-3955
sbssI1
(dp2502
g0
(g15
g2
Ntp2503
Rp2504
(dp2505
g19
I1
sg20
I0
sg21
I1
sg22
g0
(g23
g2
Ntp2506
Rp2507
(dp2508
g27
I4
sg28
I3
sbsg29
I0
sbg0
(g1
g2
Ntp2509
Rp2510
(dp2511
g6
g2468
sg7
I-2965
sg8
L507L
sg9
g10
(g11
tp2512
Rp2513
sg22
g60
sg62
g63
(g64
(I0
tp2514
g66
tp2515
Rp2516
(I1
(L4L
L3L
tp2517
g73
I00
S'\x00\x00\x00\x01\x01\x01\x01\x01\x01\x00\x01\x01'
p2518
tp2519
bsg78
I-2965
sbssI2
(dp2520
g0
(g15
g2
Ntp2521
Rp2522
(dp2523
g19
I0
sg20
I0
sg21
I2
sg22
g0
(g23
g2
Ntp2524
Rp2525
(dp2526
g27
I4
sg28
I3
sbsg29
I0
sbg0
(g1
g2
Ntp2527
Rp2528
(dp2529
g6
g2468
sg7
Finf
sg8
L383L
sg9
g10
(g11
tp2530
Rp2531
I2
(dp2532
g0
(g15
g2
Ntp2533
Rp2534
(dp2535
g19
I2
sg20
I3
sg21
I2
sg22
g0
(g23
g2
Ntp2536
Rp2537
(dp2538
g27
I4
sg28
I3
sbsg29
I0
sbg0
(g1
g2
Ntp2539
Rp2540
(dp2541
g6
g2528
sg7
Finf
sg8
L4095L
sg9
g10
(g11
tp2542
Rp2543
sg22
g60
sg62
g63
(g64
(I0
tp2544
g66
tp2545
Rp2546
(I1
(L4L
L3L
tp2547
g73
I00
S'\x01\x01\x01\x01\x01\x01\x01\x01\x01\x01\x01\x01'
p2548
tp2549
bsg78
Finf
sbsssg22
g60
sg62
g63
(g64
(I0
tp2550
g66
tp2551
Rp2552
(I1
(L4L
L3L
tp2553
g73
I00
S'\x00\x00\x00\x01\x00\x01\x01\x01\x01\x01\x01\x01'
p2554
tp2555
bsg78
I-3964
sbsg0
(g15
g2
Ntp2556
Rp2557
(dp2558
g19
I2
sg20
I3
sg21
I2
sg22
g0
(g23
g2
Ntp2559
Rp2560
(dp2561
g27
I4
sg28
I3
sbsg29
I0
sbg0
(g1
g2
Ntp2562
Rp2563
(dp2564
g6
g2468
sg7
I-939
sg8
L3787L
sg9
g10
(g11
tp2565
Rp2566
sg22
g60
sg62
g63
(g64
(I0
tp2567
g66
tp2568
Rp2569
(I1
(L4L
L3L
tp2570
g73
I00
S'\x01\x01\x01\x00\x01\x01\x00\x00\x01\x00\x01\x01'
p2571
tp2572
bsg78
I-939
sbsg0
(g15
g2
Ntp2573
Rp2574
(dp2575
g19
I1
sg20
I2
sg21
I2
sg22
g0
(g23
g2
Ntp2576
Rp2577
(dp2578
g27
I4
sg28
I3
sbsg29
I0
sbg0
(g1
g2
Ntp2579
Rp2580
(dp2581
g6
g2468
sg7
I-1960
sg8
L1499L
sg9
g10
(g11
tp2582
Rp2583
sg22
g60
sg62
g63
(g64
(I0
tp2584
g66
tp2585
Rp2586
(I1
(L4L
L3L
tp2587
g73
I00
S'\x00\x01\x00\x01\x01\x01\x00\x01\x01\x00\x01\x01'
p2588
tp2589
bsg78
I-1960
sbssI3
(dp2590
g0
(g15
g2
Ntp2591
Rp2592
(dp2593
g19
I0
sg20
I0
sg21
I3
sg22
g0
(g23
g2
Ntp2594
Rp2595
(dp2596
g27
I4
sg28
I3
sbsg29
I0
sbg0
(g1
g2
Ntp2597
Rp2598
(dp2599
g6
g2468
sg7
I-3966
sg8
L495L
sg9
g10
(g11
tp2600
Rp2601
sg22
g60
sg62
g63
(g64
(I0
tp2602
g66
tp2603
Rp2604
(I1
(L4L
L3L
tp2605
g73
I00
S'\x00\x00\x00\x01\x01\x01\x01\x00\x01\x01\x01\x01'
p2606
tp2607
bsg78
I-3966
sbsg0
(g15
g2
Ntp2608
Rp2609
(dp2610
g19
I1
sg20
I2
sg21
I3
sg22
g0
(g23
g2
Ntp2611
Rp2612
(dp2613
g27
I4
sg28
I3
sbsg29
I0
sbg0
(g1
g2
Ntp2614
Rp2615
(dp2616
g6
g2468
sg7
I-2960
sg8
L1275L
sg9
g10
(g11
tp2617
Rp2618
sg22
g60
sg62
g63
(g64
(I0
tp2619
g66
tp2620
Rp2621
(I1
(L4L
L3L
tp2622
g73
I00
S'\x00\x01\x00\x00\x01\x01\x01\x01\x01\x00\x01\x01'
p2623
tp2624
bsg78
I-2960
sbsg0
(g15
g2
Ntp2625
Rp2626
(dp2627
g19
I1
sg20
I0
sg21
I3
sg22
g0
(g23
g2
Ntp2628
Rp2629
(dp2630
g27
I4
sg28
I3
sbsg29
I1
sbg0
(g1
g2
Ntp2631
Rp2632
(dp2633
g6
g2468
sg7
Finf
sg8
L1755L
sg9
g10
(g11
tp2634
Rp2635
I0
(dp2636
g0
(g15
g2
Ntp2637
Rp2638
(dp2639
g19
I0
sg20
I0
sg21
I0
sg22
g222
sg29
I0
sbg0
(g1
g2
Ntp2640
Rp2641
(dp2642
g6
g2632
sg7
Finf
sg8
L4095L
sg9
g10
(g11
tp2643
Rp2644
sg22
g60
sg62
g63
(g64
(I0
tp2645
g66
tp2646
Rp2647
(I1
(L4L
L3L
tp2648
g73
I00
S'\x01\x01\x01\x01\x01\x01\x01\x01\x01\x01\x01\x01'
p2649
tp2650
bsg78
Finf
sbsssg22
g60
sg62
g63
(g64
(I0
tp2651
g66
tp2652
Rp2653
(I1
(L4L
L3L
tp2654
g73
I00
S'\x00\x01\x01\x00\x01\x01\x00\x01\x01\x00\x01\x01'
p2655
tp2656
bsg78
I52
sbssI4
(dp2657
g0
(g15
g2
Ntp2658
Rp2659
(dp2660
g19
I2
sg20
I1
sg21
I4
sg22
g0
(g23
g2
Ntp2661
Rp2662
(dp2663
g27
I4
sg28
I3
sbsg29
I0
sbg0
(g1
g2
Ntp2664
Rp2665
(dp2666
g6
g2468
sg7
I-1938
sg8
L3915L
sg9
g10
(g11
tp2667
Rp2668
sg22
g60
sg62
g63
(g64
(I0
tp2669
g66
tp2670
Rp2671
(I1
(L4L
L3L
tp2672
g73
I00
S'\x01\x01\x01\x01\x00\x01\x00\x00\x01\x00\x01\x01'
p2673
tp2674
bsg78
I-1938
sbsg0
(g15
g2
Ntp2675
Rp2676
(dp2677
g19
I1
sg20
I0
sg21
I4
sg22
g0
(g23
g2
Ntp2678
Rp2679
(dp2680
g27
I4
sg28
I3
sbsg29
I0
sbg0
(g1
g2
Ntp2681
Rp2682
(dp2683
g6
g2468
sg7
I-950
sg8
L3291L
sg9
g10
(g11
tp2684
Rp2685
sg22
g60
sg62
g63
(g64
(I0
tp2686
g66
tp2687
Rp2688
(I1
(L4L
L3L
tp2689
g73
I00
S'\x01\x01\x00\x00\x01\x01\x00\x01\x01\x00\x01\x01'
p2690
tp2691
bsg78
I-950
sbsg0
(g15
g2
Ntp2692
Rp2693
(dp2694
g19
I1
sg20
I2
sg21
I4
sg22
g0
(g23
g2
Ntp2695
Rp2696
(dp2697
g27
I4
sg28
I3
sbsg29
I0
sbg0
(g1
g2
Ntp2698
Rp2699
(dp2700
g6
g2468
sg7
I-2956
sg8
L2427L
sg9
g10
(g11
tp2701
Rp2702
sg22
g60
sg62
g63
(g64
(I0
tp2703
g66
tp2704
Rp2705
(I1
(L4L
L3L
tp2706
g73
I00
S'\x01\x00\x00\x01\x00\x01\x01\x01\x01\x00\x01\x01'
p2707
tp2708
bsg78
I-2956
sbssI5
(dp2709
g0
(g15
g2
Ntp2710
Rp2711
(dp2712
g19
I2
sg20
I1
sg21
I5
sg22
g0
(g23
g2
Ntp2713
Rp2714
(dp2715
g27
I4
sg28
I3
sbsg29
I0
sbg0
(g1
g2
Ntp2716
Rp2717
(dp2718
g6
g2468
sg7
I-1949
sg8
L1995L
sg9
g10
(g11
tp2719
Rp2720
sg22
g60
sg62
g63
(g64
(I0
tp2721
g66
tp2722
Rp2723
(I1
(L4L
L3L
tp2724
g73
I00
S'\x00\x01\x01\x01\x01\x01\x00\x00\x01\x00\x01\x01'
p2725
tp2726
bsg78
I-1949
sbsg0
(g15
g2
Ntp2727
Rp2728
(dp2729
g19
I1
sg20
I0
sg21
I5
sg22
g0
(g23
g2
Ntp2730
Rp2731
(dp2732
g27
I4
sg28
I3
sbsg29
I0
sbg0
(g1
g2
Ntp2733
Rp2734
(dp2735
g6
g2468
sg7
I-1957
sg8
L2523L
sg9
g10
(g11
tp2736
Rp2737
sg22
g60
sg62
g63
(g64
(I0
tp2738
g66
tp2739
Rp2740
(I1
(L4L
L3L
tp2741
g73
I00
S'\x01\x00\x00\x01\x01\x01\x00\x01\x01\x00\x01\x01'
p2742
tp2743
bsg78
I-1957
sbssI6
(dp2744
g0
(g15
g2
Ntp2745
Rp2746
(dp2747
g19
I0
sg20
I0
sg21
I6
sg22
g0
(g23
g2
Ntp2748
Rp2749
(dp2750
g27
I4
sg28
I3
sbsg29
I0
sbg0
(g1
g2
Ntp2751
Rp2752
(dp2753
g6
g2468
sg7
Finf
sg8
L255L
sg9
g10
(g11
tp2754
Rp2755
I4
(dp2756
g0
(g15
g2
Ntp2757
Rp2758
(dp2759
g19
I2
sg20
I1
sg21
I4
sg22
g0
(g23
g2
Ntp2760
Rp2761
(dp2762
g27
I4
sg28
I3
sbsg29
I0
sbg0
(g1
g2
Ntp2763
Rp2764
(dp2765
g6
g2752
sg7
Finf
sg8
L4095L
sg9
g10
(g11
tp2766
Rp2767
sg22
g60
sg62
g63
(g64
(I0
tp2768
g66
tp2769
Rp2770
(I1
(L4L
L3L
tp2771
g73
I00
S'\x01\x01\x01\x01\x01\x01\x01\x01\x01\x01\x01\x01'
p2772
tp2773
bsg78
Finf
sbsssg22
g60
sg62
g63
(g64
(I0
tp2774
g66
tp2775
Rp2776
(I1
(L4L
L3L
tp2777
g73
I00
S'\x00\x00\x00\x00\x01\x01\x01\x01\x01\x01\x01\x01'
p2778
tp2779
bsg78
I-3965
sbsssg22
g60
sg62
g63
(g64
(I0
tp2780
g66
tp2781
Rp2782
(I1
(L4L
L3L
tp2783
g73
I00
S'\x00\x00\x00\x00\x00\x01\x00\x00\x01\x00\x01\x01'
p2784
tp2785
bsg78
I-3985
sbsg0
(g15
g2
Ntp2786
Rp2787
(dp2788
g19
I0
sg20
I3
sg21
I3
sg22
g0
(g23
g2
Ntp2789
Rp2790
(dp2791
g27
I4
sg28
I3
sbsg29
I0
sbg0
(g1
g2
Ntp2792
Rp2793
(dp2794
g6
g4
sg7
I-1938
sg8
L57L
sg9
g10
(g11
tp2795
Rp2796
I1
(dp2797
g0
(g15
g2
Ntp2798
Rp2799
(dp2800
g19
I2
sg20
I0
sg21
I1
sg22
g0
(g23
g2
Ntp2801
Rp2802
(dp2803
g27
I4
sg28
I3
sbsg29
I0
sbg0
(g1
g2
Ntp2804
Rp2805
(dp2806
g6
g2793
sg7
I-1947
sg8
L3513L
sg9
g10
(g11
tp2807
Rp2808
sg22
g60
sg62
g63
(g64
(I0
tp2809
g66
tp2810
Rp2811
(I1
(L4L
L3L
tp2812
g73
I00
S'\x01\x01\x00\x01\x01\x00\x01\x01\x01\x00\x00\x01'
p2813
tp2814
bsg78
I-1947
sbsg0
(g15
g2
Ntp2815
Rp2816
(dp2817
g19
I2
sg20
I0
sg21
I1
sg22
g0
(g23
g2
Ntp2818
Rp2819
(dp2820
g27
I4
sg28
I3
sbsg29
I1
sbg0
(g1
g2
Ntp2821
Rp2822
(dp2823
g6
g2793
sg7
I-1947
sg8
L1785L
sg9
g10
(g11
tp2824
Rp2825
sg22
g60
sg62
g63
(g64
(I0
tp2826
g66
tp2827
Rp2828
(I1
(L4L
L3L
tp2829
g73
I00
S'\x00\x01\x01\x00\x01\x01\x01\x01\x01\x00\x00\x01'
p2830
tp2831
bsg78
I-1947
sbssI2
(dp2832
g0
(g15
g2
Ntp2833
Rp2834
(dp2835
g19
I2
sg20
I1
sg21
I2
sg22
g0
(g23
g2
Ntp2836
Rp2837
(dp2838
g27
I4
sg28
I3
sbsg29
I0
sbg0
(g1
g2
Ntp2839
Rp2840
(dp2841
g6
g2793
sg7
I-1957
sg8
L1529L
sg9
g10
(g11
tp2842
Rp2843
sg22
g60
sg62
g63
(g64
(I0
tp2844
g66
tp2845
Rp2846
(I1
(L4L
L3L
tp2847
g73
I00
S'\x00\x01\x00\x01\x01\x01\x01\x01\x01\x00\x00\x01'
p2848
tp2849
bsg78
I-1957
sbsg0
(g15
g2
Ntp2850
Rp2851
(dp2852
g19
I2
sg20
I3
sg21
I2
sg22
g0
(g23
g2
Ntp2853
Rp2854
(dp2855
g27
I4
sg28
I3
sbsg29
I0
sbg0
(g1
g2
Ntp2856
Rp2857
(dp2858
g6
g2793
sg7
I-1941
sg8
L3769L
sg9
g10
(g11
tp2859
Rp2860
sg22
g60
sg62
g63
(g64
(I0
tp2861
g66
tp2862
Rp2863
(I1
(L4L
L3L
tp2864
g73
I00
S'\x01\x01\x01\x00\x01\x00\x01\x01\x01\x00\x00\x01'
p2865
tp2866
bsg78
I-1941
sbssI3
(dp2867
g0
(g15
g2
Ntp2868
Rp2869
(dp2870
g19
I2
sg20
I1
sg21
I3
sg22
g0
(g23
g2
Ntp2871
Rp2872
(dp2873
g27
I4
sg28
I3
sbsg29
I0
sbg0
(g1
g2
Ntp2874
Rp2875
(dp2876
g6
g2793
sg7
I-1954
sg8
L2553L
sg9
g10
(g11
tp2877
Rp2878
sg22
g60
sg62
g63
(g64
(I0
tp2879
g66
tp2880
Rp2881
(I1
(L4L
L3L
tp2882
g73
I00
S'\x01\x00\x00\x01\x01\x01\x01\x01\x01\x00\x00\x01'
p2883
tp2884
bsg78
I-1954
sbsg0
(g15
g2
Ntp2885
Rp2886
(dp2887
g19
I2
sg20
I3
sg21
I3
sg22
g0
(g23
g2
Ntp2888
Rp2889
(dp2890
g27
I4
sg28
I3
sbsg29
I0
sbg0
(g1
g2
Ntp2891
Rp2892
(dp2893
g6
g2793
sg7
I-1938
sg8
L3705L
sg9
g10
(g11
tp2894
Rp2895
sg22
g60
sg62
g63
(g64
(I0
tp2896
g66
tp2897
Rp2898
(I1
(L4L
L3L
tp2899
g73
I00
S'\x01\x01\x01\x00\x00\x01\x01\x01\x01\x00\x00\x01'
p2900
tp2901
bsg78
I-1938
sbssI4
(dp2902
g0
(g15
g2
Ntp2903
Rp2904
(dp2905
g19
I2
sg20
I1
sg21
I4
sg22
g0
(g23
g2
Ntp2906
Rp2907
(dp2908
g27
I4
sg28
I3
sbsg29
I0
sbg0
(g1
g2
Ntp2909
Rp2910
(dp2911
g6
g2793
sg7
I-1938
sg8
L3897L
sg9
g10
(g11
tp2912
Rp2913
sg22
g60
sg62
g63
(g64
(I0
tp2914
g66
tp2915
Rp2916
(I1
(L4L
L3L
tp2917
g73
I00
S'\x01\x01\x01\x01\x00\x00\x01\x01\x01\x00\x00\x01'
p2918
tp2919
bsg78
I-1938
sbsg0
(g15
g2
Ntp2920
Rp2921
(dp2922
g19
I2
sg20
I3
sg21
I4
sg22
g0
(g23
g2
Ntp2923
Rp2924
(dp2925
g27
I4
sg28
I3
sbsg29
I0
sbg0
(g1
g2
Ntp2926
Rp2927
(dp2928
g6
g2793
sg7
I-1954
sg8
L1017L
sg9
g10
(g11
tp2929
Rp2930
sg22
g60
sg62
g63
(g64
(I0
tp2931
g66
tp2932
Rp2933
(I1
(L4L
L3L
tp2934
g73
I00
S'\x00\x00\x01\x01\x01\x01\x01\x01\x01\x00\x00\x01'
p2935
tp2936
bsg78
I-1954
sbssI5
(dp2937
g0
(g15
g2
Ntp2938
Rp2939
(dp2940
g19
I2
sg20
I1
sg21
I5
sg22
g0
(g23
g2
Ntp2941
Rp2942
(dp2943
g27
I4
sg28
I3
sbsg29
I0
sbg0
(g1
g2
Ntp2944
Rp2945
(dp2946
g6
g2793
sg7
I-1949
sg8
L1977L
sg9
g10
(g11
tp2947
Rp2948
sg22
g60
sg62
g63
(g64
(I0
tp2949
g66
tp2950
Rp2951
(I1
(L4L
L3L
tp2952
g73
I00
S'\x00\x01\x01\x01\x01\x00\x01\x01\x01\x00\x00\x01'
p2953
tp2954
bsg78
I-1949
sbssI6
(dp2955
g0
(g15
g2
Ntp2956
Rp2957
(dp2958
g19
I2
sg20
I1
sg21
I6
sg22
g0
(g23
g2
Ntp2959
Rp2960
(dp2961
g27
I4
sg28
I3
sbsg29
I0
sbg0
(g1
g2
Ntp2962
Rp2963
(dp2964
g6
g2793
sg7
I-1949
sg8
L3321L
sg9
g10
(g11
tp2965
Rp2966
sg22
g60
sg62
g63
(g64
(I0
tp2967
g66
tp2968
Rp2969
(I1
(L4L
L3L
tp2970
g73
I00
S'\x01\x01\x00\x00\x01\x01\x01\x01\x01\x00\x00\x01'
p2971
tp2972
bsg78
I-1949
sbsssg22
g60
sg62
g63
(g64
(I0
tp2973
g66
tp2974
Rp2975
(I1
(L4L
L3L
tp2976
g73
I00
S'\x00\x00\x00\x00\x00\x00\x01\x01\x01\x00\x00\x01'
p2977
tp2978
bsg78
I-5985
sbsg0
(g15
g2
Ntp2979
Rp2980
(dp2981
g19
I0
sg20
I0
sg21
I3
sg22
g0
(g23
g2
Ntp2982
Rp2983
(dp2984
g27
I4
sg28
I3
sbsg29
I0
sbg0
(g1
g2
Ntp2985
Rp2986
(dp2987
g6
g4
sg7
I66
sg8
L420L
sg9
g10
(g11
tp2988
Rp2989
I0
(dp2990
g0
(g15
g2
Ntp2991
Rp2992
(dp2993
g19
I0
sg20
I0
sg21
I0
sg22
g561
sg29
I2
sbg0
(g1
g2
Ntp2994
Rp2995
(dp2996
g6
g2986
sg7
I-1955
sg8
L1005L
sg9
g10
(g11
tp2997
Rp2998
sg22
g60
sg62
g63
(g64
(I0
tp2999
g66
tp3000
Rp3001
(I1
(L4L
L3L
tp3002
g73
I00
S'\x00\x00\x01\x01\x01\x01\x01\x00\x01\x01\x00\x01'
p3003
tp3004
bsg78
I-1955
sbssI3
(dp3005
g0
(g15
g2
Ntp3006
Rp3007
(dp3008
g19
I2
sg20
I3
sg21
I3
sg22
g0
(g23
g2
Ntp3009
Rp3010
(dp3011
g27
I4
sg28
I3
sbsg29
I0
sbg0
(g1
g2
Ntp3012
Rp3013
(dp3014
g6
g2986
sg7
I66
sg8
L4068L
sg9
g10
(g11
tp3015
Rp3016
sg22
g60
sg62
g63
(g64
(I0
tp3017
g66
tp3018
Rp3019
(I1
(L4L
L3L
tp3020
g73
I00
S'\x01\x01\x01\x01\x01\x01\x01\x00\x00\x01\x00\x00'
p3021
tp3022
bsg78
I66
sbsg0
(g15
g2
Ntp3023
Rp3024
(dp3025
g19
I0
sg20
I2
sg21
I3
sg22
g2595
sg29
I1
sbg0
(g1
g2
Ntp3026
Rp3027
(dp3028
g6
g2986
sg7
I-3966
sg8
L495L
sg9
g10
(g11
tp3029
Rp3030
sg22
g60
sg62
g63
(g64
(I0
tp3031
g66
tp3032
Rp3033
(I1
(L4L
L3L
tp3034
g73
I00
S'\x00\x00\x00\x01\x01\x01\x01\x00\x01\x01\x01\x01'
p3035
tp3036
bsg78
I-3966
sbssI4
(dp3037
g0
(g15
g2
Ntp3038
Rp3039
(dp3040
g19
I1
sg20
I0
sg21
I4
sg22
g0
(g23
g2
Ntp3041
Rp3042
(dp3043
g27
I4
sg28
I3
sbsg29
I1
sbg0
(g1
g2
Ntp3044
Rp3045
(dp3046
g6
g2986
sg7
I-946
sg8
L2028L
sg9
g10
(g11
tp3047
Rp3048
sg22
g60
sg62
g63
(g64
(I0
tp3049
g66
tp3050
Rp3051
(I1
(L4L
L3L
tp3052
g73
I00
S'\x00\x01\x01\x01\x01\x01\x01\x00\x01\x01\x00\x00'
p3053
tp3054
bsg78
I-946
sbsssg22
g60
sg62
g63
(g64
(I0
tp3055
g66
tp3056
Rp3057
(I1
(L4L
L3L
tp3058
g73
I00
S'\x00\x00\x00\x01\x01\x00\x01\x00\x00\x01\x00\x00'
p3059
tp3060
bsg78
I-1985
sbsg0
(g15
g2
Ntp3061
Rp3062
(dp3063
g19
I0
sg20
I0
sg21
I3
sg22
g0
(g23
g2
Ntp3064
Rp3065
(dp3066
g27
I4
sg28
I3
sbsg29
I1
sbg0
(g1
g2
Ntp3067
Rp3068
(dp3069
g6
g4
sg7
I60
sg8
L210L
sg9
g10
(g11
tp3070
Rp3071
I0
(dp3072
g0
(g15
g2
Ntp3073
Rp3074
(dp3075
g19
I0
sg20
I0
sg21
I0
sg22
g193
sg29
I0
sbg0
(g1
g2
Ntp3076
Rp3077
(dp3078
g6
g3068
sg7
I-1957
sg8
L2550L
sg9
g10
(g11
tp3079
Rp3080
sg22
g60
sg62
g63
(g64
(I0
tp3081
g66
tp3082
Rp3083
(I1
(L4L
L3L
tp3084
g73
I00
S'\x01\x00\x00\x01\x01\x01\x01\x01\x00\x01\x01\x00'
p3085
tp3086
bsg78
I-1957
sbssI3
(dp3087
g0
(g15
g2
Ntp3088
Rp3089
(dp3090
g19
I1
sg20
I0
sg21
I3
sg22
g0
(g23
g2
Ntp3091
Rp3092
(dp3093
g27
I4
sg28
I3
sbsg29
I0
sbg0
(g1
g2
Ntp3094
Rp3095
(dp3096
g6
g3068
sg7
I-950
sg8
L3570L
sg9
g10
(g11
tp3097
Rp3098
sg22
g60
sg62
g63
(g64
(I0
tp3099
g66
tp3100
Rp3101
(I1
(L4L
L3L
tp3102
g73
I00
S'\x01\x01\x00\x01\x01\x01\x01\x01\x00\x00\x01\x00'
p3103
tp3104
bsg78
I-950
sbssI4
(dp3105
g0
(g15
g2
Ntp3106
Rp3107
(dp3108
g19
I2
sg20
I1
sg21
I4
sg22
g0
(g23
g2
Ntp3109
Rp3110
(dp3111
g27
I4
sg28
I3
sbsg29
I0
sbg0
(g1
g2
Ntp3112
Rp3113
(dp3114
g6
g3068
sg7
I60
sg8
L4050L
sg9
g10
(g11
tp3115
Rp3116
sg22
g60
sg62
g63
(g64
(I0
tp3117
g66
tp3118
Rp3119
(I1
(L4L
L3L
tp3120
g73
I00
S'\x01\x01\x01\x01\x01\x01\x00\x01\x00\x00\x01\x00'
p3121
tp3122
bsg78
I60
sbsssg22
g60
sg62
g63
(g64
(I0
tp3123
g66
tp3124
Rp3125
(I1
(L4L
L3L
tp3126
g73
I00
S'\x00\x00\x00\x00\x01\x01\x00\x01\x00\x00\x01\x00'
p3127
tp3128
bsg78
I-1991
sbsg0
(g15
g2
Ntp3129
Rp3130
(dp3131
g19
I0
sg20
I1
sg21
I3
sg22
g0
(g23
g2
Ntp3132
Rp3133
(dp3134
g27
I4
sg28
I3
sbsg29
I0
sbg0
(g1
g2
Ntp3135
Rp3136
(dp3137
g6
g4
sg7
Finf
sg8
L39L
sg9
g10
(g11
tp3138
Rp3139
I1
(dp3140
g0
(g15
g2
Ntp3141
Rp3142
(dp3143
g19
I1
sg20
I0
sg21
I1
sg22
g0
(g23
g2
Ntp3144
Rp3145
(dp3146
g27
I4
sg28
I3
sbsg29
I1
sbg0
(g1
g2
Ntp3147
Rp3148
(dp3149
g6
g3136
sg7
Finf
sg8
L255L
sg9
g10
(g11
tp3150
Rp3151
I4
(dp3152
g0
(g15
g2
Ntp3153
Rp3154
(dp3155
g19
I2
sg20
I1
sg21
I4
sg22
g0
(g23
g2
Ntp3156
Rp3157
(dp3158
g27
I4
sg28
I3
sbsg29
I0
sbg0
(g1
g2
Ntp3159
Rp3160
(dp3161
g6
g3148
sg7
Finf
sg8
L4095L
sg9
g10
(g11
tp3162
Rp3163
sg22
g60
sg62
g63
(g64
(I0
tp3164
g66
tp3165
Rp3166
(I1
(L4L
L3L
tp3167
g73
I00
S'\x01\x01\x01\x01\x01\x01\x01\x01\x01\x01\x01\x01'
p3168
tp3169
bsg78
Finf
sbsssg22
g60
sg62
g63
(g64
(I0
tp3170
g66
tp3171
Rp3172
(I1
(L4L
L3L
tp3173
g73
I00
S'\x00\x00\x00\x00\x01\x01\x01\x01\x01\x01\x01\x01'
p3174
tp3175
bsg78
I-3965
sbsg0
(g15
g2
Ntp3176
Rp3177
(dp3178
g19
I2
sg20
I0
sg21
I1
sg22
g0
(g23
g2
Ntp3179
Rp3180
(dp3181
g27
I4
sg28
I3
sbsg29
I0
sbg0
(g1
g2
Ntp3182
Rp3183
(dp3184
g6
g3136
sg7
I-3949
sg8
L3495L
sg9
g10
(g11
tp3185
Rp3186
sg22
g60
sg62
g63
(g64
(I0
tp3187
g66
tp3188
Rp3189
(I1
(L4L
L3L
tp3190
g73
I00
S'\x01\x01\x00\x01\x01\x00\x01\x00\x00\x01\x01\x01'
p3191
tp3192
bsg78
I-3949
sbssI2
(dp3193
g0
(g15
g2
Ntp3194
Rp3195
(dp3196
g19
I2
sg20
I1
sg21
I2
sg22
g0
(g23
g2
Ntp3197
Rp3198
(dp3199
g27
I4
sg28
I3
sbsg29
I0
sbg0
(g1
g2
Ntp3200
Rp3201
(dp3202
g6
g3136
sg7
I-3961
sg8
L1511L
sg9
g10
(g11
tp3203
Rp3204
sg22
g60
sg62
g63
(g64
(I0
tp3205
g66
tp3206
Rp3207
(I1
(L4L
L3L
tp3208
g73
I00
S'\x00\x01\x00\x01\x01\x01\x01\x00\x00\x01\x01\x01'
p3209
tp3210
bsg78
I-3961
sbsg0
(g15
g2
Ntp3211
Rp3212
(dp3213
g19
I1
sg20
I2
sg21
I2
sg22
g0
(g23
g2
Ntp3214
Rp3215
(dp3216
g27
I4
sg28
I3
sbsg29
I0
sbg0
(g1
g2
Ntp3217
Rp3218
(dp3219
g6
g3136
sg7
I-3960
sg8
L1463L
sg9
g10
(g11
tp3220
Rp3221
sg22
g60
sg62
g63
(g64
(I0
tp3222
g66
tp3223
Rp3224
(I1
(L4L
L3L
tp3225
g73
I00
S'\x00\x01\x00\x01\x01\x00\x01\x01\x00\x01\x01\x01'
p3226
tp3227
bsg78
I-3960
sbsg0
(g15
g2
Ntp3228
Rp3229
(dp3230
g19
I1
sg20
I0
sg21
I2
sg22
g0
(g23
g2
Ntp3231
Rp3232
(dp3233
g27
I4
sg28
I3
sbsg29
I1
sbg0
(g1
g2
Ntp3234
Rp3235
(dp3236
g6
g3136
sg7
I-3962
sg8
L1271L
sg9
g10
(g11
tp3237
Rp3238
sg22
g60
sg62
g63
(g64
(I0
tp3239
g66
tp3240
Rp3241
(I1
(L4L
L3L
tp3242
g73
I00
S'\x00\x01\x00\x00\x01\x01\x01\x01\x00\x01\x01\x01'
p3243
tp3244
bsg78
I-3962
sbsg0
(g15
g2
Ntp3245
Rp3246
(dp3247
g19
I1
sg20
I2
sg21
I2
sg22
g0
(g23
g2
Ntp3248
Rp3249
(dp3250
g27
I4
sg28
I3
sbsg29
I1
sbg0
(g1
g2
Ntp3251
Rp3252
(dp3253
g6
g3136
sg7
I-3958
sg8
L751L
sg9
g10
(g11
tp3254
Rp3255
sg22
g60
sg62
g63
(g64
(I0
tp3256
g66
tp3257
Rp3258
(I1
(L4L
L3L
tp3259
g73
I00
S'\x00\x00\x01\x00\x01\x01\x01\x00\x01\x01\x01\x01'
p3260
tp3261
bsg78
I-3958
sbsg0
(g15
g2
Ntp3262
Rp3263
(dp3264
g19
I1
sg20
I3
sg21
I2
sg22
g0
(g23
g2
Ntp3265
Rp3266
(dp3267
g27
I4
sg28
I3
sbsg29
I0
sbg0
(g1
g2
Ntp3268
Rp3269
(dp3270
g6
g3136
sg7
I-3967
sg8
L503L
sg9
g10
(g11
tp3271
Rp3272
sg22
g60
sg62
g63
(g64
(I0
tp3273
g66
tp3274
Rp3275
(I1
(L4L
L3L
tp3276
g73
I00
S'\x00\x00\x00\x01\x01\x01\x01\x01\x00\x01\x01\x01'
p3277
tp3278
bsg78
I-3967
sbssI3
(dp3279
g0
(g15
g2
Ntp3280
Rp3281
(dp3282
g19
I2
sg20
I1
sg21
I3
sg22
g0
(g23
g2
Ntp3283
Rp3284
(dp3285
g27
I4
sg28
I3
sbsg29
I0
sbg0
(g1
g2
Ntp3286
Rp3287
(dp3288
g6
g3136
sg7
I-3958
sg8
L2535L
sg9
g10
(g11
tp3289
Rp3290
sg22
g60
sg62
g63
(g64
(I0
tp3291
g66
tp3292
Rp3293
(I1
(L4L
L3L
tp3294
g73
I00
S'\x01\x00\x00\x01\x01\x01\x01\x00\x00\x01\x01\x01'
p3295
tp3296
bsg78
I-3958
sbsg0
(g15
g2
Ntp3297
Rp3298
(dp3299
g19
I1
sg20
I0
sg21
I3
sg22
g0
(g23
g2
Ntp3300
Rp3301
(dp3302
g27
I4
sg28
I3
sbsg29
I1
sbg0
(g1
g2
Ntp3303
Rp3304
(dp3305
g6
g3136
sg7
I-3952
sg8
L1719L
sg9
g10
(g11
tp3306
Rp3307
sg22
g60
sg62
g63
(g64
(I0
tp3308
g66
tp3309
Rp3310
(I1
(L4L
L3L
tp3311
g73
I00
S'\x00\x01\x01\x00\x01\x00\x01\x01\x00\x01\x01\x01'
p3312
tp3313
bsg78
I-3952
sbsg0
(g15
g2
Ntp3314
Rp3315
(dp3316
g19
I1
sg20
I2
sg21
I3
sg22
g0
(g23
g2
Ntp3317
Rp3318
(dp3319
g27
I4
sg28
I3
sbsg29
I1
sbg0
(g1
g2
Ntp3320
Rp3321
(dp3322
g6
g3136
sg7
Finf
sg8
L639L
sg9
g10
(g11
tp3323
Rp3324
I1
(dp3325
g0
(g15
g2
Ntp3326
Rp3327
(dp3328
g19
I2
sg20
I0
sg21
I1
sg22
g0
(g23
g2
Ntp3329
Rp3330
(dp3331
g27
I4
sg28
I3
sbsg29
I0
sbg0
(g1
g2
Ntp3332
Rp3333
(dp3334
g6
g3321
sg7
Finf
sg8
L4095L
sg9
g10
(g11
tp3335
Rp3336
sg22
g60
sg62
g63
(g64
(I0
tp3337
g66
tp3338
Rp3339
(I1
(L4L
L3L
tp3340
g73
I00
S'\x01\x01\x01\x01\x01\x01\x01\x01\x01\x01\x01\x01'
p3341
tp3342
bsg78
Finf
sbsssg22
g60
sg62
g63
(g64
(I0
tp3343
g66
tp3344
Rp3345
(I1
(L4L
L3L
tp3346
g73
I00
S'\x00\x00\x01\x00\x00\x01\x01\x01\x01\x01\x01\x01'
p3347
tp3348
bsg78
I-3954
sbsg0
(g15
g2
Ntp3349
Rp3350
(dp3351
g19
I1
sg20
I3
sg21
I3
sg22
g0
(g23
g2
Ntp3352
Rp3353
(dp3354
g27
I4
sg28
I3
sbsg29
I0
sbg0
(g1
g2
Ntp3355
Rp3356
(dp3357
g6
g3136
sg7
I-3966
sg8
L495L
sg9
g10
(g11
tp3358
Rp3359
sg22
g60
sg62
g63
(g64
(I0
tp3360
g66
tp3361
Rp3362
(I1
(L4L
L3L
tp3363
g73
I00
S'\x00\x00\x00\x01\x01\x01\x01\x00\x01\x01\x01\x01'
p3364
tp3365
bsg78
I-3966
sbssI4
(dp3366
g0
(g15
g2
Ntp3367
Rp3368
(dp3369
g19
I2
sg20
I1
sg21
I4
sg22
g0
(g23
g2
Ntp3370
Rp3371
(dp3372
g27
I4
sg28
I3
sbsg29
I0
sbg0
(g1
g2
Ntp3373
Rp3374
(dp3375
g6
g3136
sg7
I-3938
sg8
L3879L
sg9
g10
(g11
tp3376
Rp3377
sg22
g60
sg62
g63
(g64
(I0
tp3378
g66
tp3379
Rp3380
(I1
(L4L
L3L
tp3381
g73
I00
S'\x01\x01\x01\x01\x00\x00\x01\x00\x00\x01\x01\x01'
p3382
tp3383
bsg78
I-3938
sbsg0
(g15
g2
Ntp3384
Rp3385
(dp3386
g19
I2
sg20
I3
sg21
I4
sg22
g0
(g23
g2
Ntp3387
Rp3388
(dp3389
g27
I4
sg28
I3
sbsg29
I0
sbg0
(g1
g2
Ntp3390
Rp3391
(dp3392
g6
g3136
sg7
I-3958
sg8
L999L
sg9
g10
(g11
tp3393
Rp3394
sg22
g60
sg62
g63
(g64
(I0
tp3395
g66
tp3396
Rp3397
(I1
(L4L
L3L
tp3398
g73
I00
S'\x00\x00\x01\x01\x01\x01\x01\x00\x00\x01\x01\x01'
p3399
tp3400
bsg78
I-3958
sbsg0
(g15
g2
Ntp3401
Rp3402
(dp3403
g19
I1
sg20
I0
sg21
I4
sg22
g0
(g23
g2
Ntp3404
Rp3405
(dp3406
g27
I4
sg28
I3
sbsg29
I0
sbg0
(g1
g2
Ntp3407
Rp3408
(dp3409
g6
g3136
sg7
I-3952
sg8
L3255L
sg9
g10
(g11
tp3410
Rp3411
sg22
g60
sg62
g63
(g64
(I0
tp3412
g66
tp3413
Rp3414
(I1
(L4L
L3L
tp3415
g73
I00
S'\x01\x01\x00\x00\x01\x00\x01\x01\x00\x01\x01\x01'
p3416
tp3417
bsg78
I-3952
sbsg0
(g15
g2
Ntp3418
Rp3419
(dp3420
g19
I1
sg20
I0
sg21
I4
sg22
g0
(g23
g2
Ntp3421
Rp3422
(dp3423
g27
I4
sg28
I3
sbsg29
I1
sbg0
(g1
g2
Ntp3424
Rp3425
(dp3426
g6
g3136
sg7
I-3948
sg8
L1647L
sg9
g10
(g11
tp3427
Rp3428
sg22
g60
sg62
g63
(g64
(I0
tp3429
g66
tp3430
Rp3431
(I1
(L4L
L3L
tp3432
g73
I00
S'\x00\x01\x01\x00\x00\x01\x01\x00\x01\x01\x01\x01'
p3433
tp3434
bsg78
I-3948
sbsg0
(g15
g2
Ntp3435
Rp3436
(dp3437
g19
I1
sg20
I2
sg21
I4
sg22
g0
(g23
g2
Ntp3438
Rp3439
(dp3440
g27
I4
sg28
I3
sbsg29
I1
sbg0
(g1
g2
Ntp3441
Rp3442
(dp3443
g6
g3136
sg7
I-3960
sg8
L1215L
sg9
g10
(g11
tp3444
Rp3445
sg22
g60
sg62
g63
(g64
(I0
tp3446
g66
tp3447
Rp3448
(I1
(L4L
L3L
tp3449
g73
I00
S'\x00\x01\x00\x00\x01\x00\x01\x01\x01\x01\x01\x01'
p3450
tp3451
bsg78
I-3960
sbssI5
(dp3452
g0
(g15
g2
Ntp3453
Rp3454
(dp3455
g19
I2
sg20
I1
sg21
I5
sg22
g0
(g23
g2
Ntp3456
Rp3457
(dp3458
g27
I4
sg28
I3
sbsg29
I0
sbg0
(g1
g2
Ntp3459
Rp3460
(dp3461
g6
g3136
sg7
I-3951
sg8
L1959L
sg9
g10
(g11
tp3462
Rp3463
sg22
g60
sg62
g63
(g64
(I0
tp3464
g66
tp3465
Rp3466
(I1
(L4L
L3L
tp3467
g73
I00
S'\x00\x01\x01\x01\x01\x00\x01\x00\x00\x01\x01\x01'
p3468
tp3469
bsg78
I-3951
sbsg0
(g15
g2
Ntp3470
Rp3471
(dp3472
g19
I1
sg20
I0
sg21
I5
sg22
g0
(g23
g2
Ntp3473
Rp3474
(dp3475
g27
I4
sg28
I3
sbsg29
I0
sbg0
(g1
g2
Ntp3476
Rp3477
(dp3478
g6
g3136
sg7
Finf
sg8
L2487L
sg9
g10
(g11
tp3479
Rp3480
I4
(dp3481
g0
(g15
g2
Ntp3482
Rp3483
(dp3484
g19
I1
sg20
I0
sg21
I4
sg22
g0
(g23
g2
Ntp3485
Rp3486
(dp3487
g27
I4
sg28
I3
sbsg29
I1
sbg0
(g1
g2
Ntp3488
Rp3489
(dp3490
g6
g3477
sg7
Finf
sg8
L4095L
sg9
g10
(g11
tp3491
Rp3492
sg22
g60
sg62
g63
(g64
(I0
tp3493
g66
tp3494
Rp3495
(I1
(L4L
L3L
tp3496
g73
I00
S'\x01\x01\x01\x01\x01\x01\x01\x01\x01\x01\x01\x01'
p3497
tp3498
bsg78
Finf
sbsssg22
g60
sg62
g63
(g64
(I0
tp3499
g66
tp3500
Rp3501
(I1
(L4L
L3L
tp3502
g73
I00
S'\x01\x00\x00\x01\x01\x00\x01\x01\x00\x01\x01\x01'
p3503
tp3504
bsg78
I-3957
sbsg0
(g15
g2
Ntp3505
Rp3506
(dp3507
g19
I1
sg20
I0
sg21
I5
sg22
g0
(g23
g2
Ntp3508
Rp3509
(dp3510
g27
I4
sg28
I3
sbsg29
I1
sbg0
(g1
g2
Ntp3511
Rp3512
(dp3513
g6
g3136
sg7
I-3961
sg8
L1263L
sg9
g10
(g11
tp3514
Rp3515
sg22
g60
sg62
g63
(g64
(I0
tp3516
g66
tp3517
Rp3518
(I1
(L4L
L3L
tp3519
g73
I00
S'\x00\x01\x00\x00\x01\x01\x01\x00\x01\x01\x01\x01'
p3520
tp3521
bsg78
I-3961
sbssI6
(dp3522
g0
(g15
g2
Ntp3523
Rp3524
(dp3525
g19
I1
sg20
I0
sg21
I6
sg22
g0
(g23
g2
Ntp3526
Rp3527
(dp3528
g27
I4
sg28
I3
sbsg29
I1
sbg0
(g1
g2
Ntp3529
Rp3530
(dp3531
g6
g3136
sg7
I-3959
sg8
L759L
sg9
g10
(g11
tp3532
Rp3533
sg22
g60
sg62
g63
(g64
(I0
tp3534
g66
tp3535
Rp3536
(I1
(L4L
L3L
tp3537
g73
I00
S'\x00\x00\x01\x00\x01\x01\x01\x01\x00\x01\x01\x01'
p3538
tp3539
bsg78
I-3959
sbsg0
(g15
g2
Ntp3540
Rp3541
(dp3542
g19
I1
sg20
I1
sg21
I6
sg22
g0
(g23
g2
Ntp3543
Rp3544
(dp3545
g27
I4
sg28
I3
sbsg29
I0
sbg0
(g1
g2
Ntp3546
Rp3547
(dp3548
g6
g3136
sg7
Finf
sg8
L447L
sg9
g10
(g11
tp3549
Rp3550
I3
(dp3551
g0
(g15
g2
Ntp3552
Rp3553
(dp3554
g19
I2
sg20
I3
sg21
I3
sg22
g0
(g23
g2
Ntp3555
Rp3556
(dp3557
g27
I4
sg28
I3
sbsg29
I0
sbg0
(g1
g2
Ntp3558
Rp3559
(dp3560
g6
g3547
sg7
Finf
sg8
L4095L
sg9
g10
(g11
tp3561
Rp3562
sg22
g60
sg62
g63
(g64
(I0
tp3563
g66
tp3564
Rp3565
(I1
(L4L
L3L
tp3566
g73
I00
S'\x01\x01\x01\x01\x01\x01\x01\x01\x01\x01\x01\x01'
p3567
tp3568
bsg78
Finf
sbsssg22
g60
sg62
g63
(g64
(I0
tp3569
g66
tp3570
Rp3571
(I1
(L4L
L3L
tp3572
g73
I00
S'\x00\x00\x00\x01\x01\x00\x01\x01\x01\x01\x01\x01'
p3573
tp3574
bsg78
I-3965
sbsssg22
g60
sg62
g63
(g64
(I0
tp3575
g66
tp3576
Rp3577
(I1
(L4L
L3L
tp3578
g73
I00
S'\x00\x00\x00\x00\x00\x00\x01\x00\x00\x01\x01\x01'
p3579
tp3580
bsg78
I-7985
sbssI4
(dp3581
g0
(g15
g2
Ntp3582
Rp3583
(dp3584
g19
I0
sg20
I0
sg21
I4
sg22
g0
(g23
g2
Ntp3585
Rp3586
(dp3587
g27
I4
sg28
I3
sbsg29
I0
sbg0
(g1
g2
Ntp3588
Rp3589
(dp3590
g6
g4
sg7
I60
sg8
L402L
sg9
g10
(g11
tp3591
Rp3592
I0
(dp3593
g0
(g15
g2
Ntp3594
Rp3595
(dp3596
g19
I0
sg20
I0
sg21
I0
sg22
g614
sg29
I2
sbg0
(g1
g2
Ntp3597
Rp3598
(dp3599
g6
g3589
sg7
I-1957
sg8
L987L
sg9
g10
(g11
tp3600
Rp3601
sg22
g60
sg62
g63
(g64
(I0
tp3602
g66
tp3603
Rp3604
(I1
(L4L
L3L
tp3605
g73
I00
S'\x00\x00\x01\x01\x01\x01\x00\x01\x01\x00\x01\x01'
p3606
tp3607
bsg78
I-1957
sbssI3
(dp3608
g0
(g15
g2
Ntp3609
Rp3610
(dp3611
g19
I2
sg20
I3
sg21
I3
sg22
g0
(g23
g2
Ntp3612
Rp3613
(dp3614
g27
I4
sg28
I3
sbsg29
I0
sbg0
(g1
g2
Ntp3615
Rp3616
(dp3617
g6
g3589
sg7
I60
sg8
L4050L
sg9
g10
(g11
tp3618
Rp3619
sg22
g60
sg62
g63
(g64
(I0
tp3620
g66
tp3621
Rp3622
(I1
(L4L
L3L
tp3623
g73
I00
S'\x01\x01\x01\x01\x01\x01\x00\x01\x00\x00\x01\x00'
p3624
tp3625
bsg78
I60
sbssI4
(dp3626
g0
(g15
g2
Ntp3627
Rp3628
(dp3629
g19
I1
sg20
I0
sg21
I4
sg22
g0
(g23
g2
Ntp3630
Rp3631
(dp3632
g27
I4
sg28
I3
sbsg29
I1
sbg0
(g1
g2
Ntp3633
Rp3634
(dp3635
g6
g3589
sg7
I-950
sg8
L2010L
sg9
g10
(g11
tp3636
Rp3637
sg22
g60
sg62
g63
(g64
(I0
tp3638
g66
tp3639
Rp3640
(I1
(L4L
L3L
tp3641
g73
I00
S'\x00\x01\x01\x01\x01\x01\x00\x01\x01\x00\x01\x00'
p3642
tp3643
bsg78
I-950
sbsssg22
g60
sg62
g63
(g64
(I0
tp3644
g66
tp3645
Rp3646
(I1
(L4L
L3L
tp3647
g73
I00
S'\x00\x00\x00\x01\x01\x00\x00\x01\x00\x00\x01\x00'
p3648
tp3649
bsg78
I-1991
sbsg0
(g15
g2
Ntp3650
Rp3651
(dp3652
g19
I0
sg20
I0
sg21
I4
sg22
g0
(g23
g2
Ntp3653
Rp3654
(dp3655
g27
I4
sg28
I3
sbsg29
I1
sbg0
(g1
g2
Ntp3656
Rp3657
(dp3658
g6
g4
sg7
I66
sg8
L201L
sg9
g10
(g11
tp3659
Rp3660
I0
(dp3661
g0
(g15
g2
Ntp3662
Rp3663
(dp3664
g19
I0
sg20
I0
sg21
I0
sg22
g246
sg29
I0
sbg0
(g1
g2
Ntp3665
Rp3666
(dp3667
g6
g3657
sg7
I-1955
sg8
L2541L
sg9
g10
(g11
tp3668
Rp3669
sg22
g60
sg62
g63
(g64
(I0
tp3670
g66
tp3671
Rp3672
(I1
(L4L
L3L
tp3673
g73
I00
S'\x01\x00\x00\x01\x01\x01\x01\x00\x01\x01\x00\x01'
p3674
tp3675
bsg78
I-1955
sbssI3
(dp3676
g0
(g15
g2
Ntp3677
Rp3678
(dp3679
g19
I1
sg20
I0
sg21
I3
sg22
g0
(g23
g2
Ntp3680
Rp3681
(dp3682
g27
I4
sg28
I3
sbsg29
I0
sbg0
(g1
g2
Ntp3683
Rp3684
(dp3685
g6
g3657
sg7
I-946
sg8
L3561L
sg9
g10
(g11
tp3686
Rp3687
sg22
g60
sg62
g63
(g64
(I0
tp3688
g66
tp3689
Rp3690
(I1
(L4L
L3L
tp3691
g73
I00
S'\x01\x01\x00\x01\x01\x01\x01\x00\x01\x00\x00\x01'
p3692
tp3693
bsg78
I-946
sbssI4
(dp3694
g0
(g15
g2
Ntp3695
Rp3696
(dp3697
g19
I2
sg20
I1
sg21
I4
sg22
g0
(g23
g2
Ntp3698
Rp3699
(dp3700
g27
I4
sg28
I3
sbsg29
I0
sbg0
(g1
g2
Ntp3701
Rp3702
(dp3703
g6
g3657
sg7
I66
sg8
L4041L
sg9
g10
(g11
tp3704
Rp3705
sg22
g60
sg62
g63
(g64
(I0
tp3706
g66
tp3707
Rp3708
(I1
(L4L
L3L
tp3709
g73
I00
S'\x01\x01\x01\x01\x01\x01\x00\x00\x01\x00\x00\x01'
p3710
tp3711
bsg78
I66
sbsg0
(g15
g2
Ntp3712
Rp3713
(dp3714
g19
I0
sg20
I2
sg21
I4
sg22
g0
(g23
g2
Ntp3715
Rp3716
(dp3717
g27
I4
sg28
I3
sbsg29
I0
sbg0
(g1
g2
Ntp3718
Rp3719
(dp3720
g6
g3657
sg7
I-3966
sg8
L495L
sg9
g10
(g11
tp3721
Rp3722
sg22
g60
sg62
g63
(g64
(I0
tp3723
g66
tp3724
Rp3725
(I1
(L4L
L3L
tp3726
g73
I00
S'\x00\x00\x00\x01\x01\x01\x01\x00\x01\x01\x01\x01'
p3727
tp3728
bsg78
I-3966
sbsssg22
g60
sg62
g63
(g64
(I0
tp3729
g66
tp3730
Rp3731
(I1
(L4L
L3L
tp3732
g73
I00
S'\x00\x00\x00\x00\x01\x01\x00\x00\x01\x00\x00\x01'
p3733
tp3734
bsg78
I-1985
sbsg0
(g15
g2
Ntp3735
Rp3736
(dp3737
g19
I0
sg20
I1
sg21
I4
sg22
g0
(g23
g2
Ntp3738
Rp3739
(dp3740
g27
I4
sg28
I3
sbsg29
I0
sbg0
(g1
g2
Ntp3741
Rp3742
(dp3743
g6
g4
sg7
I-1938
sg8
L60L
sg9
g10
(g11
tp3744
Rp3745
I1
(dp3746
g0
(g15
g2
Ntp3747
Rp3748
(dp3749
g19
I2
sg20
I0
sg21
I1
sg22
g0
(g23
g2
Ntp3750
Rp3751
(dp3752
g27
I4
sg28
I3
sbsg29
I0
sbg0
(g1
g2
Ntp3753
Rp3754
(dp3755
g6
g3742
sg7
I-1947
sg8
L3516L
sg9
g10
(g11
tp3756
Rp3757
sg22
g60
sg62
g63
(g64
(I0
tp3758
g66
tp3759
Rp3760
(I1
(L4L
L3L
tp3761
g73
I00
S'\x01\x01\x00\x01\x01\x00\x01\x01\x01\x01\x00\x00'
p3762
tp3763
bsg78
I-1947
sbsg0
(g15
g2
Ntp3764
Rp3765
(dp3766
g19
I2
sg20
I0
sg21
I1
sg22
g0
(g23
g2
Ntp3767
Rp3768
(dp3769
g27
I4
sg28
I3
sbsg29
I1
sbg0
(g1
g2
Ntp3770
Rp3771
(dp3772
g6
g3742
sg7
I-1947
sg8
L1788L
sg9
g10
(g11
tp3773
Rp3774
sg22
g60
sg62
g63
(g64
(I0
tp3775
g66
tp3776
Rp3777
(I1
(L4L
L3L
tp3778
g73
I00
S'\x00\x01\x01\x00\x01\x01\x01\x01\x01\x01\x00\x00'
p3779
tp3780
bsg78
I-1947
sbssI2
(dp3781
g0
(g15
g2
Ntp3782
Rp3783
(dp3784
g19
I2
sg20
I1
sg21
I2
sg22
g0
(g23
g2
Ntp3785
Rp3786
(dp3787
g27
I4
sg28
I3
sbsg29
I0
sbg0
(g1
g2
Ntp3788
Rp3789
(dp3790
g6
g3742
sg7
I-1957
sg8
L1532L
sg9
g10
(g11
tp3791
Rp3792
sg22
g60
sg62
g63
(g64
(I0
tp3793
g66
tp3794
Rp3795
(I1
(L4L
L3L
tp3796
g73
I00
S'\x00\x01\x00\x01\x01\x01\x01\x01\x01\x01\x00\x00'
p3797
tp3798
bsg78
I-1957
sbsg0
(g15
g2
Ntp3799
Rp3800
(dp3801
g19
I2
sg20
I3
sg21
I2
sg22
g0
(g23
g2
Ntp3802
Rp3803
(dp3804
g27
I4
sg28
I3
sbsg29
I0
sbg0
(g1
g2
Ntp3805
Rp3806
(dp3807
g6
g3742
sg7
I-1941
sg8
L3772L
sg9
g10
(g11
tp3808
Rp3809
sg22
g60
sg62
g63
(g64
(I0
tp3810
g66
tp3811
Rp3812
(I1
(L4L
L3L
tp3813
g73
I00
S'\x01\x01\x01\x00\x01\x00\x01\x01\x01\x01\x00\x00'
p3814
tp3815
bsg78
I-1941
sbssI3
(dp3816
g0
(g15
g2
Ntp3817
Rp3818
(dp3819
g19
I2
sg20
I1
sg21
I3
sg22
g0
(g23
g2
Ntp3820
Rp3821
(dp3822
g27
I4
sg28
I3
sbsg29
I0
sbg0
(g1
g2
Ntp3823
Rp3824
(dp3825
g6
g3742
sg7
I-1954
sg8
L2556L
sg9
g10
(g11
tp3826
Rp3827
sg22
g60
sg62
g63
(g64
(I0
tp3828
g66
tp3829
Rp3830
(I1
(L4L
L3L
tp3831
g73
I00
S'\x01\x00\x00\x01\x01\x01\x01\x01\x01\x01\x00\x00'
p3832
tp3833
bsg78
I-1954
sbsg0
(g15
g2
Ntp3834
Rp3835
(dp3836
g19
I2
sg20
I3
sg21
I3
sg22
g0
(g23
g2
Ntp3837
Rp3838
(dp3839
g27
I4
sg28
I3
sbsg29
I0
sbg0
(g1
g2
Ntp3840
Rp3841
(dp3842
g6
g3742
sg7
I-1938
sg8
L3708L
sg9
g10
(g11
tp3843
Rp3844
sg22
g60
sg62
g63
(g64
(I0
tp3845
g66
tp3846
Rp3847
(I1
(L4L
L3L
tp3848
g73
I00
S'\x01\x01\x01\x00\x00\x01\x01\x01\x01\x01\x00\x00'
p3849
tp3850
bsg78
I-1938
sbssI4
(dp3851
g0
(g15
g2
Ntp3852
Rp3853
(dp3854
g19
I2
sg20
I1
sg21
I4
sg22
g0
(g23
g2
Ntp3855
Rp3856
(dp3857
g27
I4
sg28
I3
sbsg29
I0
sbg0
(g1
g2
Ntp3858
Rp3859
(dp3860
g6
g3742
sg7
I-1938
sg8
L3900L
sg9
g10
(g11
tp3861
Rp3862
sg22
g60
sg62
g63
(g64
(I0
tp3863
g66
tp3864
Rp3865
(I1
(L4L
L3L
tp3866
g73
I00
S'\x01\x01\x01\x01\x00\x00\x01\x01\x01\x01\x00\x00'
p3867
tp3868
bsg78
I-1938
sbsg0
(g15
g2
Ntp3869
Rp3870
(dp3871
g19
I2
sg20
I3
sg21
I4
sg22
g0
(g23
g2
Ntp3872
Rp3873
(dp3874
g27
I4
sg28
I3
sbsg29
I0
sbg0
(g1
g2
Ntp3875
Rp3876
(dp3877
g6
g3742
sg7
I-1954
sg8
L1020L
sg9
g10
(g11
tp3878
Rp3879
sg22
g60
sg62
g63
(g64
(I0
tp3880
g66
tp3881
Rp3882
(I1
(L4L
L3L
tp3883
g73
I00
S'\x00\x00\x01\x01\x01\x01\x01\x01\x01\x01\x00\x00'
p3884
tp3885
bsg78
I-1954
sbssI5
(dp3886
g0
(g15
g2
Ntp3887
Rp3888
(dp3889
g19
I2
sg20
I1
sg21
I5
sg22
g0
(g23
g2
Ntp3890
Rp3891
(dp3892
g27
I4
sg28
I3
sbsg29
I0
sbg0
(g1
g2
Ntp3893
Rp3894
(dp3895
g6
g3742
sg7
I-1949
sg8
L1980L
sg9
g10
(g11
tp3896
Rp3897
sg22
g60
sg62
g63
(g64
(I0
tp3898
g66
tp3899
Rp3900
(I1
(L4L
L3L
tp3901
g73
I00
S'\x00\x01\x01\x01\x01\x00\x01\x01\x01\x01\x00\x00'
p3902
tp3903
bsg78
I-1949
sbssI6
(dp3904
g0
(g15
g2
Ntp3905
Rp3906
(dp3907
g19
I2
sg20
I1
sg21
I6
sg22
g0
(g23
g2
Ntp3908
Rp3909
(dp3910
g27
I4
sg28
I3
sbsg29
I0
sbg0
(g1
g2
Ntp3911
Rp3912
(dp3913
g6
g3742
sg7
I-1949
sg8
L3324L
sg9
g10
(g11
tp3914
Rp3915
sg22
g60
sg62
g63
(g64
(I0
tp3916
g66
tp3917
Rp3918
(I1
(L4L
L3L
tp3919
g73
I00
S'\x01\x01\x00\x00\x01\x01\x01\x01\x01\x01\x00\x00'
p3920
tp3921
bsg78
I-1949
sbsssg22
g60
sg62
g63
(g64
(I0
tp3922
g66
tp3923
Rp3924
(I1
(L4L
L3L
tp3925
g73
I00
S'\x00\x00\x00\x00\x00\x00\x01\x01\x01\x01\x00\x00'
p3926
tp3927
bsg78
I-5985
sbsg0
(g15
g2
Ntp3928
Rp3929
(dp3930
g19
I0
sg20
I2
sg21
I4
sg22
g0
(g23
g2
Ntp3931
Rp3932
(dp3933
g27
I4
sg28
I3
sbsg29
I0
sbg0
(g1
g2
Ntp3934
Rp3935
(dp3936
g6
g4
sg7
Finf
sg8
L294L
sg9
g10
(g11
tp3937
Rp3938
I0
(dp3939
g0
(g15
g2
Ntp3940
Rp3941
(dp3942
g19
I0
sg20
I0
sg21
I0
sg22
g631
sg29
I2
sbg0
(g1
g2
Ntp3943
Rp3944
(dp3945
g6
g3935
sg7
Finf
sg8
L879L
sg9
g10
(g11
tp3946
Rp3947
I4
(dp3948
g0
(g15
g2
Ntp3949
Rp3950
(dp3951
g19
I1
sg20
I0
sg21
I4
sg22
g643
sg29
I0
sbg0
(g1
g2
Ntp3952
Rp3953
(dp3954
g6
g3944
sg7
Finf
sg8
L4095L
sg9
g10
(g11
tp3955
Rp3956
sg22
g60
sg62
g63
(g64
(I0
tp3957
g66
tp3958
Rp3959
(I1
(L4L
L3L
tp3960
g73
I00
S'\x01\x01\x01\x01\x01\x01\x01\x01\x01\x01\x01\x01'
p3961
tp3962
bsg78
Finf
sbsssg22
g60
sg62
g63
(g64
(I0
tp3963
g66
tp3964
Rp3965
(I1
(L4L
L3L
tp3966
g73
I00
S'\x00\x00\x01\x01\x00\x01\x01\x00\x01\x01\x01\x01'
p3967
tp3968
bsg78
I-3955
sbssI1
(dp3969
g0
(g15
g2
Ntp3970
Rp3971
(dp3972
g19
I1
sg20
I0
sg21
I1
sg22
g0
(g23
g2
Ntp3973
Rp3974
(dp3975
g27
I4
sg28
I3
sbsg29
I1
sbg0
(g1
g2
Ntp3976
Rp3977
(dp3978
g6
g3935
sg7
I-2965
sg8
L510L
sg9
g10
(g11
tp3979
Rp3980
sg22
g60
sg62
g63
(g64
(I0
tp3981
g66
tp3982
Rp3983
(I1
(L4L
L3L
tp3984
g73
I00
S'\x00\x00\x00\x01\x01\x01\x01\x01\x01\x01\x01\x00'
p3985
tp3986
bsg78
I-2965
sbssI2
(dp3987
g0
(g15
g2
Ntp3988
Rp3989
(dp3990
g19
I2
sg20
I3
sg21
I2
sg22
g0
(g23
g2
Ntp3991
Rp3992
(dp3993
g27
I4
sg28
I3
sbsg29
I0
sbg0
(g1
g2
Ntp3994
Rp3995
(dp3996
g6
g3935
sg7
I-939
sg8
L4006L
sg9
g10
(g11
tp3997
Rp3998
sg22
g60
sg62
g63
(g64
(I0
tp3999
g66
tp4000
Rp4001
(I1
(L4L
L3L
tp4002
g73
I00
S'\x01\x01\x01\x01\x01\x00\x01\x00\x00\x01\x01\x00'
p4003
tp4004
bsg78
I-939
sbsg0
(g15
g2
Ntp4005
Rp4006
(dp4007
g19
I0
sg20
I2
sg21
I2
sg22
g0
(g23
g2
Ntp4008
Rp4009
(dp4010
g27
I4
sg28
I3
sbsg29
I1
sbg0
(g1
g2
Ntp4011
Rp4012
(dp4013
g6
g3935
sg7
Finf
sg8
L383L
sg9
g10
(g11
tp4014
Rp4015
I2
(dp4016
g0
(g15
g2
Ntp4017
Rp4018
(dp4019
g19
I2
sg20
I3
sg21
I2
sg22
g0
(g23
g2
Ntp4020
Rp4021
(dp4022
g27
I4
sg28
I3
sbsg29
I0
sbg0
(g1
g2
Ntp4023
Rp4024
(dp4025
g6
g4012
sg7
Finf
sg8
L4095L
sg9
g10
(g11
tp4026
Rp4027
sg22
g60
sg62
g63
(g64
(I0
tp4028
g66
tp4029
Rp4030
(I1
(L4L
L3L
tp4031
g73
I00
S'\x01\x01\x01\x01\x01\x01\x01\x01\x01\x01\x01\x01'
p4032
tp4033
bsg78
Finf
sbsssg22
g60
sg62
g63
(g64
(I0
tp4034
g66
tp4035
Rp4036
(I1
(L4L
L3L
tp4037
g73
I00
S'\x00\x00\x00\x01\x00\x01\x01\x01\x01\x01\x01\x01'
p4038
tp4039
bsg78
I-3964
sbsg0
(g15
g2
Ntp4040
Rp4041
(dp4042
g19
I1
sg20
I0
sg21
I2
sg22
g0
(g23
g2
Ntp4043
Rp4044
(dp4045
g27
I4
sg28
I3
sbsg29
I1
sbg0
(g1
g2
Ntp4046
Rp4047
(dp4048
g6
g3935
sg7
I-1960
sg8
L1526L
sg9
g10
(g11
tp4049
Rp4050
sg22
g60
sg62
g63
(g64
(I0
tp4051
g66
tp4052
Rp4053
(I1
(L4L
L3L
tp4054
g73
I00
S'\x00\x01\x00\x01\x01\x01\x01\x01\x00\x01\x01\x00'
p4055
tp4056
bsg78
I-1960
sbssI3
(dp4057
g0
(g15
g2
Ntp4058
Rp4059
(dp4060
g19
I2
sg20
I3
sg21
I3
sg22
g0
(g23
g2
Ntp4061
Rp4062
(dp4063
g27
I4
sg28
I3
sbsg29
I0
sbg0
(g1
g2
Ntp4064
Rp4065
(dp4066
g6
g3935
sg7
I-1938
sg8
L3942L
sg9
g10
(g11
tp4067
Rp4068
sg22
g60
sg62
g63
(g64
(I0
tp4069
g66
tp4070
Rp4071
(I1
(L4L
L3L
tp4072
g73
I00
S'\x01\x01\x01\x01\x00\x01\x01\x00\x00\x01\x01\x00'
p4073
tp4074
bsg78
I-1938
sbsg0
(g15
g2
Ntp4075
Rp4076
(dp4077
g19
I1
sg20
I0
sg21
I3
sg22
g0
(g23
g2
Ntp4078
Rp4079
(dp4080
g27
I4
sg28
I3
sbsg29
I1
sbg0
(g1
g2
Ntp4081
Rp4082
(dp4083
g6
g3935
sg7
I-950
sg8
L1974L
sg9
g10
(g11
tp4084
Rp4085
sg22
g60
sg62
g63
(g64
(I0
tp4086
g66
tp4087
Rp4088
(I1
(L4L
L3L
tp4089
g73
I00
S'\x00\x01\x01\x01\x01\x00\x01\x01\x00\x01\x01\x00'
p4090
tp4091
bsg78
I-950
sbsg0
(g15
g2
Ntp4092
Rp4093
(dp4094
g19
I1
sg20
I2
sg21
I3
sg22
g0
(g23
g2
Ntp4095
Rp4096
(dp4097
g27
I4
sg28
I3
sbsg29
I1
sbg0
(g1
g2
Ntp4098
Rp4099
(dp4100
g6
g3935
sg7
I-2956
sg8
L894L
sg9
g10
(g11
tp4101
Rp4102
sg22
g60
sg62
g63
(g64
(I0
tp4103
g66
tp4104
Rp4105
(I1
(L4L
L3L
tp4106
g73
I00
S'\x00\x00\x01\x01\x00\x01\x01\x01\x01\x01\x01\x00'
p4107
tp4108
bsg78
I-2956
sbssI4
(dp4109
g0
(g15
g2
Ntp4110
Rp4111
(dp4112
g19
I0
sg20
I0
sg21
I4
sg22
g3716
sg29
I1
sbg0
(g1
g2
Ntp4113
Rp4114
(dp4115
g6
g3935
sg7
I-3966
sg8
L495L
sg9
g10
(g11
tp4116
Rp4117
sg22
g60
sg62
g63
(g64
(I0
tp4118
g66
tp4119
Rp4120
(I1
(L4L
L3L
tp4121
g73
I00
S'\x00\x00\x00\x01\x01\x01\x01\x00\x01\x01\x01\x01'
p4122
tp4123
bsg78
I-3966
sbsg0
(g15
g2
Ntp4124
Rp4125
(dp4126
g19
I1
sg20
I0
sg21
I4
sg22
g0
(g23
g2
Ntp4127
Rp4128
(dp4129
g27
I4
sg28
I3
sbsg29
I0
sbg0
(g1
g2
Ntp4130
Rp4131
(dp4132
g6
g3935
sg7
Finf
sg8
L3510L
sg9
g10
(g11
tp4133
Rp4134
I0
(dp4135
g0
(g15
g2
Ntp4136
Rp4137
(dp4138
g19
I0
sg20
I0
sg21
I0
sg22
g643
sg29
I2
sbg0
(g1
g2
Ntp4139
Rp4140
(dp4141
g6
g4131
sg7
Finf
sg8
L4095L
sg9
g10
(g11
tp4142
Rp4143
sg22
g60
sg62
g63
(g64
(I0
tp4144
g66
tp4145
Rp4146
(I1
(L4L
L3L
tp4147
g73
I00
S'\x01\x01\x01\x01\x01\x01\x01\x01\x01\x01\x01\x01'
p4148
tp4149
bsg78
Finf
sbsssg22
g60
sg62
g63
(g64
(I0
tp4150
g66
tp4151
Rp4152
(I1
(L4L
L3L
tp4153
g73
I00
S'\x01\x01\x00\x01\x01\x00\x01\x01\x00\x01\x01\x00'
p4154
tp4155
bsg78
I52
sbsg0
(g15
g2
Ntp4156
Rp4157
(dp4158
g19
I1
sg20
I2
sg21
I4
sg22
g0
(g23
g2
Ntp4159
Rp4160
(dp4161
g27
I4
sg28
I3
sbsg29
I1
sbg0
(g1
g2
Ntp4162
Rp4163
(dp4164
g6
g3935
sg7
I-2960
sg8
L1470L
sg9
g10
(g11
tp4165
Rp4166
sg22
g60
sg62
g63
(g64
(I0
tp4167
g66
tp4168
Rp4169
(I1
(L4L
L3L
tp4170
g73
I00
S'\x00\x01\x00\x01\x01\x00\x01\x01\x01\x01\x01\x00'
p4171
tp4172
bsg78
I-2960
sbssI5
(dp4173
g0
(g15
g2
Ntp4174
Rp4175
(dp4176
g19
I0
sg20
I0
sg21
I5
sg22
g0
(g23
g2
Ntp4177
Rp4178
(dp4179
g27
I4
sg28
I3
sbsg29
I1
sbg0
(g1
g2
Ntp4180
Rp4181
(dp4182
g6
g3935
sg7
Finf
sg8
L447L
sg9
g10
(g11
tp4183
Rp4184
I3
(dp4185
g0
(g15
g2
Ntp4186
Rp4187
(dp4188
g19
I2
sg20
I3
sg21
I3
sg22
g0
(g23
g2
Ntp4189
Rp4190
(dp4191
g27
I4
sg28
I3
sbsg29
I0
sbg0
(g1
g2
Ntp4192
Rp4193
(dp4194
g6
g4181
sg7
Finf
sg8
L4095L
sg9
g10
(g11
tp4195
Rp4196
sg22
g60
sg62
g63
(g64
(I0
tp4197
g66
tp4198
Rp4199
(I1
(L4L
L3L
tp4200
g73
I00
S'\x01\x01\x01\x01\x01\x01\x01\x01\x01\x01\x01\x01'
p4201
tp4202
bsg78
Finf
sbsssg22
g60
sg62
g63
(g64
(I0
tp4203
g66
tp4204
Rp4205
(I1
(L4L
L3L
tp4206
g73
I00
S'\x00\x00\x00\x01\x01\x00\x01\x01\x01\x01\x01\x01'
p4207
tp4208
bsg78
I-3965
sbssI6
(dp4209
g0
(g15
g2
Ntp4210
Rp4211
(dp4212
g19
I2
sg20
I1
sg21
I6
sg22
g0
(g23
g2
Ntp4213
Rp4214
(dp4215
g27
I4
sg28
I3
sbsg29
I0
sbg0
(g1
g2
Ntp4216
Rp4217
(dp4218
g6
g3935
sg7
I-1949
sg8
L3558L
sg9
g10
(g11
tp4219
Rp4220
sg22
g60
sg62
g63
(g64
(I0
tp4221
g66
tp4222
Rp4223
(I1
(L4L
L3L
tp4224
g73
I00
S'\x01\x01\x00\x01\x01\x01\x01\x00\x00\x01\x01\x00'
p4225
tp4226
bsg78
I-1949
sbsg0
(g15
g2
Ntp4227
Rp4228
(dp4229
g19
I1
sg20
I0
sg21
I6
sg22
g0
(g23
g2
Ntp4230
Rp4231
(dp4232
g27
I4
sg28
I3
sbsg29
I1
sbg0
(g1
g2
Ntp4233
Rp4234
(dp4235
g6
g3935
sg7
I-1957
sg8
L1014L
sg9
g10
(g11
tp4236
Rp4237
sg22
g60
sg62
g63
(g64
(I0
tp4238
g66
tp4239
Rp4240
(I1
(L4L
L3L
tp4241
g73
I00
S'\x00\x00\x01\x01\x01\x01\x01\x01\x00\x01\x01\x00'
p4242
tp4243
bsg78
I-1957
sbsssg22
g60
sg62
g63
(g64
(I0
tp4244
g66
tp4245
Rp4246
(I1
(L4L
L3L
tp4247
g73
I00
S'\x00\x00\x00\x01\x00\x00\x01\x00\x00\x01\x01\x00'
p4248
tp4249
bsg78
I-3985
sbsg0
(g15
g2
Ntp4250
Rp4251
(dp4252
g19
I0
sg20
I2
sg21
I4
sg22
g0
(g23
g2
Ntp4253
Rp4254
(dp4255
g27
I4
sg28
I3
sbsg29
I1
sbg0
(g1
g2
Ntp4256
Rp4257
(dp4258
g6
g4
sg7
Finf
sg8
L147L
sg9
g10
(g11
tp4259
Rp4260
I0
(dp4261
g0
(g15
g2
Ntp4262
Rp4263
(dp4264
g19
I0
sg20
I0
sg21
I0
sg22
g263
sg29
I0
sbg0
(g1
g2
Ntp4265
Rp4266
(dp4267
g6
g4257
sg7
Finf
sg8
L2487L
sg9
g10
(g11
tp4268
Rp4269
I4
(dp4270
g0
(g15
g2
Ntp4271
Rp4272
(dp4273
g19
I1
sg20
I0
sg21
I4
sg22
g275
sg29
I1
sbg0
(g1
g2
Ntp4274
Rp4275
(dp4276
g6
g4266
sg7
Finf
sg8
L4095L
sg9
g10
(g11
tp4277
Rp4278
sg22
g60
sg62
g63
(g64
(I0
tp4279
g66
tp4280
Rp4281
(I1
(L4L
L3L
tp4282
g73
I00
S'\x01\x01\x01\x01\x01\x01\x01\x01\x01\x01\x01\x01'
p4283
tp4284
bsg78
Finf
sbsssg22
g60
sg62
g63
(g64
(I0
tp4285
g66
tp4286
Rp4287
(I1
(L4L
L3L
tp4288
g73
I00
S'\x01\x00\x00\x01\x01\x00\x01\x01\x00\x01\x01\x01'
p4289
tp4290
bsg78
I-3957
sbssI3
(dp4291
g0
(g15
g2
Ntp4292
Rp4293
(dp4294
g19
I2
sg20
I3
sg21
I3
sg22
g0
(g23
g2
Ntp4295
Rp4296
(dp4297
g27
I4
sg28
I3
sbsg29
I0
sbg0
(g1
g2
Ntp4298
Rp4299
(dp4300
g6
g4257
sg7
I-942
sg8
L3795L
sg9
g10
(g11
tp4301
Rp4302
sg22
g60
sg62
g63
(g64
(I0
tp4303
g66
tp4304
Rp4305
(I1
(L4L
L3L
tp4306
g73
I00
S'\x01\x01\x01\x00\x01\x01\x00\x01\x00\x00\x01\x01'
p4307
tp4308
bsg78
I-942
sbsg0
(g15
g2
Ntp4309
Rp4310
(dp4311
g19
I1
sg20
I0
sg21
I3
sg22
g0
(g23
g2
Ntp4312
Rp4313
(dp4314
g27
I4
sg28
I3
sbsg29
I0
sbg0
(g1
g2
Ntp4315
Rp4316
(dp4317
g6
g4257
sg7
I-2950
sg8
L3507L
sg9
g10
(g11
tp4318
Rp4319
sg22
g60
sg62
g63
(g64
(I0
tp4320
g66
tp4321
Rp4322
(I1
(L4L
L3L
tp4323
g73
I00
S'\x01\x01\x00\x01\x01\x00\x01\x01\x00\x00\x01\x01'
p4324
tp4325
bsg78
I-2950
sbssI4
(dp4326
g0
(g15
g2
Ntp4327
Rp4328
(dp4329
g19
I2
sg20
I1
sg21
I4
sg22
g0
(g23
g2
Ntp4330
Rp4331
(dp4332
g27
I4
sg28
I3
sbsg29
I0
sbg0
(g1
g2
Ntp4333
Rp4334
(dp4335
g6
g4257
sg7
I-1942
sg8
L3987L
sg9
g10
(g11
tp4336
Rp4337
sg22
g60
sg62
g63
(g64
(I0
tp4338
g66
tp4339
Rp4340
(I1
(L4L
L3L
tp4341
g73
I00
S'\x01\x01\x01\x01\x01\x00\x00\x01\x00\x00\x01\x01'
p4342
tp4343
bsg78
I-1942
sbsg0
(g15
g2
Ntp4344
Rp4345
(dp4346
g19
I1
sg20
I0
sg21
I4
sg22
g0
(g23
g2
Ntp4347
Rp4348
(dp4349
g27
I4
sg28
I3
sbsg29
I1
sbg0
(g1
g2
Ntp4350
Rp4351
(dp4352
g6
g4257
sg7
Finf
sg8
L1755L
sg9
g10
(g11
tp4353
Rp4354
I0
(dp4355
g0
(g15
g2
Ntp4356
Rp4357
(dp4358
g19
I0
sg20
I0
sg21
I0
sg22
g275
sg29
I0
sbg0
(g1
g2
Ntp4359
Rp4360
(dp4361
g6
g4351
sg7
Finf
sg8
L4095L
sg9
g10
(g11
tp4362
Rp4363
sg22
g60
sg62
g63
(g64
(I0
tp4364
g66
tp4365
Rp4366
(I1
(L4L
L3L
tp4367
g73
I00
S'\x01\x01\x01\x01\x01\x01\x01\x01\x01\x01\x01\x01'
p4368
tp4369
bsg78
Finf
sbsssg22
g60
sg62
g63
(g64
(I0
tp4370
g66
tp4371
Rp4372
(I1
(L4L
L3L
tp4373
g73
I00
S'\x00\x01\x01\x00\x01\x01\x00\x01\x01\x00\x01\x01'
p4374
tp4375
bsg78
I52
sbsssg22
g60
sg62
g63
(g64
(I0
tp4376
g66
tp4377
Rp4378
(I1
(L4L
L3L
tp4379
g73
I00
S'\x00\x00\x00\x00\x01\x00\x00\x01\x00\x00\x01\x01'
p4380
tp4381
bsg78
I-3991
sbsg0
(g15
g2
Ntp4382
Rp4383
(dp4384
g19
I0
sg20
I3
sg21
I4
sg22
g0
(g23
g2
Ntp4385
Rp4386
(dp4387
g27
I4
sg28
I3
sbsg29
I0
sbg0
(g1
g2
Ntp4388
Rp4389
(dp4390
g6
g4
sg7
Finf
sg8
L15L
sg9
g10
(g11
tp4391
Rp4392
I1
(dp4393
g0
(g15
g2
Ntp4394
Rp4395
(dp4396
g19
I1
sg20
I0
sg21
I1
sg22
g0
(g23
g2
Ntp4397
Rp4398
(dp4399
g27
I4
sg28
I3
sbsg29
I0
sbg0
(g1
g2
Ntp4400
Rp4401
(dp4402
g6
g4389
sg7
Finf
sg8
L447L
sg9
g10
(g11
tp4403
Rp4404
I3
(dp4405
g0
(g15
g2
Ntp4406
Rp4407
(dp4408
g19
I2
sg20
I3
sg21
I3
sg22
g0
(g23
g2
Ntp4409
Rp4410
(dp4411
g27
I4
sg28
I3
sbsg29
I0
sbg0
(g1
g2
Ntp4412
Rp4413
(dp4414
g6
g4401
sg7
Finf
sg8
L4095L
sg9
g10
(g11
tp4415
Rp4416
sg22
g60
sg62
g63
(g64
(I0
tp4417
g66
tp4418
Rp4419
(I1
(L4L
L3L
tp4420
g73
I00
S'\x01\x01\x01\x01\x01\x01\x01\x01\x01\x01\x01\x01'
p4421
tp4422
bsg78
Finf
sbsssg22
g60
sg62
g63
(g64
(I0
tp4423
g66
tp4424
Rp4425
(I1
(L4L
L3L
tp4426
g73
I00
S'\x00\x00\x00\x01\x01\x00\x01\x01\x01\x01\x01\x01'
p4427
tp4428
bsg78
I-3965
sbsg0
(g15
g2
Ntp4429
Rp4430
(dp4431
g19
I2
sg20
I0
sg21
I1
sg22
g0
(g23
g2
Ntp4432
Rp4433
(dp4434
g27
I4
sg28
I3
sbsg29
I1
sbg0
(g1
g2
Ntp4435
Rp4436
(dp4437
g6
g4389
sg7
I-3949
sg8
L1743L
sg9
g10
(g11
tp4438
Rp4439
sg22
g60
sg62
g63
(g64
(I0
tp4440
g66
tp4441
Rp4442
(I1
(L4L
L3L
tp4443
g73
I00
S'\x00\x01\x01\x00\x01\x01\x00\x00\x01\x01\x01\x01'
p4444
tp4445
bsg78
I-3949
sbssI2
(dp4446
g0
(g15
g2
Ntp4447
Rp4448
(dp4449
g19
I2
sg20
I1
sg21
I2
sg22
g0
(g23
g2
Ntp4450
Rp4451
(dp4452
g27
I4
sg28
I3
sbsg29
I0
sbg0
(g1
g2
Ntp4453
Rp4454
(dp4455
g6
g4389
sg7
I-3961
sg8
L1487L
sg9
g10
(g11
tp4456
Rp4457
sg22
g60
sg62
g63
(g64
(I0
tp4458
g66
tp4459
Rp4460
(I1
(L4L
L3L
tp4461
g73
I00
S'\x00\x01\x00\x01\x01\x01\x00\x00\x01\x01\x01\x01'
p4462
tp4463
bsg78
I-3961
sbsg0
(g15
g2
Ntp4464
Rp4465
(dp4466
g19
I1
sg20
I0
sg21
I2
sg22
g0
(g23
g2
Ntp4467
Rp4468
(dp4469
g27
I4
sg28
I3
sbsg29
I0
sbg0
(g1
g2
Ntp4470
Rp4471
(dp4472
g6
g4389
sg7
I-3958
sg8
L2479L
sg9
g10
(g11
tp4473
Rp4474
sg22
g60
sg62
g63
(g64
(I0
tp4475
g66
tp4476
Rp4477
(I1
(L4L
L3L
tp4478
g73
I00
S'\x01\x00\x00\x01\x01\x00\x01\x00\x01\x01\x01\x01'
p4479
tp4480
bsg78
I-3958
sbsg0
(g15
g2
Ntp4481
Rp4482
(dp4483
g19
I1
sg20
I0
sg21
I2
sg22
g0
(g23
g2
Ntp4484
Rp4485
(dp4486
g27
I4
sg28
I3
sbsg29
I1
sbg0
(g1
g2
Ntp4487
Rp4488
(dp4489
g6
g4389
sg7
I-3960
sg8
L1247L
sg9
g10
(g11
tp4490
Rp4491
sg22
g60
sg62
g63
(g64
(I0
tp4492
g66
tp4493
Rp4494
(I1
(L4L
L3L
tp4495
g73
I00
S'\x00\x01\x00\x00\x01\x01\x00\x01\x01\x01\x01\x01'
p4496
tp4497
bsg78
I-3960
sbsg0
(g15
g2
Ntp4498
Rp4499
(dp4500
g19
I1
sg20
I2
sg21
I2
sg22
g0
(g23
g2
Ntp4501
Rp4502
(dp4503
g27
I4
sg28
I3
sbsg29
I0
sbg0
(g1
g2
Ntp4504
Rp4505
(dp4506
g6
g4389
sg7
I-3962
sg8
L1439L
sg9
g10
(g11
tp4507
Rp4508
sg22
g60
sg62
g63
(g64
(I0
tp4509
g66
tp4510
Rp4511
(I1
(L4L
L3L
tp4512
g73
I00
S'\x00\x01\x00\x01\x01\x00\x00\x01\x01\x01\x01\x01'
p4513
tp4514
bsg78
I-3962
sbsg0
(g15
g2
Ntp4515
Rp4516
(dp4517
g19
I1
sg20
I3
sg21
I2
sg22
g0
(g23
g2
Ntp4518
Rp4519
(dp4520
g27
I4
sg28
I3
sbsg29
I0
sbg0
(g1
g2
Ntp4521
Rp4522
(dp4523
g6
g4389
sg7
I-3967
sg8
L479L
sg9
g10
(g11
tp4524
Rp4525
sg22
g60
sg62
g63
(g64
(I0
tp4526
g66
tp4527
Rp4528
(I1
(L4L
L3L
tp4529
g73
I00
S'\x00\x00\x00\x01\x01\x01\x00\x01\x01\x01\x01\x01'
p4530
tp4531
bsg78
I-3967
sbssI3
(dp4532
g0
(g15
g2
Ntp4533
Rp4534
(dp4535
g19
I2
sg20
I1
sg21
I3
sg22
g0
(g23
g2
Ntp4536
Rp4537
(dp4538
g27
I4
sg28
I3
sbsg29
I0
sbg0
(g1
g2
Ntp4539
Rp4540
(dp4541
g6
g4389
sg7
I-3958
sg8
L2511L
sg9
g10
(g11
tp4542
Rp4543
sg22
g60
sg62
g63
(g64
(I0
tp4544
g66
tp4545
Rp4546
(I1
(L4L
L3L
tp4547
g73
I00
S'\x01\x00\x00\x01\x01\x01\x00\x00\x01\x01\x01\x01'
p4548
tp4549
bsg78
I-3958
sbsg0
(g15
g2
Ntp4550
Rp4551
(dp4552
g19
I2
sg20
I3
sg21
I3
sg22
g0
(g23
g2
Ntp4553
Rp4554
(dp4555
g27
I4
sg28
I3
sbsg29
I0
sbg0
(g1
g2
Ntp4556
Rp4557
(dp4558
g6
g4389
sg7
I-3938
sg8
L3663L
sg9
g10
(g11
tp4559
Rp4560
sg22
g60
sg62
g63
(g64
(I0
tp4561
g66
tp4562
Rp4563
(I1
(L4L
L3L
tp4564
g73
I00
S'\x01\x01\x01\x00\x00\x01\x00\x00\x01\x01\x01\x01'
p4565
tp4566
bsg78
I-3938
sbsg0
(g15
g2
Ntp4567
Rp4568
(dp4569
g19
I1
sg20
I0
sg21
I3
sg22
g0
(g23
g2
Ntp4570
Rp4571
(dp4572
g27
I4
sg28
I3
sbsg29
I0
sbg0
(g1
g2
Ntp4573
Rp4574
(dp4575
g6
g4389
sg7
I-3948
sg8
L3375L
sg9
g10
(g11
tp4576
Rp4577
sg22
g60
sg62
g63
(g64
(I0
tp4578
g66
tp4579
Rp4580
(I1
(L4L
L3L
tp4581
g73
I00
S'\x01\x01\x00\x01\x00\x00\x01\x00\x01\x01\x01\x01'
p4582
tp4583
bsg78
I-3948
sbsg0
(g15
g2
Ntp4584
Rp4585
(dp4586
g19
I1
sg20
I0
sg21
I3
sg22
g0
(g23
g2
Ntp4587
Rp4588
(dp4589
g27
I4
sg28
I3
sbsg29
I1
sbg0
(g1
g2
Ntp4590
Rp4591
(dp4592
g6
g4389
sg7
I-3952
sg8
L1695L
sg9
g10
(g11
tp4593
Rp4594
sg22
g60
sg62
g63
(g64
(I0
tp4595
g66
tp4596
Rp4597
(I1
(L4L
L3L
tp4598
g73
I00
S'\x00\x01\x01\x00\x01\x00\x00\x01\x01\x01\x01\x01'
p4599
tp4600
bsg78
I-3952
sbsg0
(g15
g2
Ntp4601
Rp4602
(dp4603
g19
I1
sg20
I2
sg21
I3
sg22
g0
(g23
g2
Ntp4604
Rp4605
(dp4606
g27
I4
sg28
I3
sbsg29
I0
sbg0
(g1
g2
Ntp4607
Rp4608
(dp4609
g6
g4389
sg7
I-3960
sg8
L1215L
sg9
g10
(g11
tp4610
Rp4611
sg22
g60
sg62
g63
(g64
(I0
tp4612
g66
tp4613
Rp4614
(I1
(L4L
L3L
tp4615
g73
I00
S'\x00\x01\x00\x00\x01\x00\x01\x01\x01\x01\x01\x01'
p4616
tp4617
bsg78
I-3960
sbssI4
(dp4618
g0
(g15
g2
Ntp4619
Rp4620
(dp4621
g19
I2
sg20
I3
sg21
I4
sg22
g0
(g23
g2
Ntp4622
Rp4623
(dp4624
g27
I4
sg28
I3
sbsg29
I0
sbg0
(g1
g2
Ntp4625
Rp4626
(dp4627
g6
g4389
sg7
I-3958
sg8
L975L
sg9
g10
(g11
tp4628
Rp4629
sg22
g60
sg62
g63
(g64
(I0
tp4630
g66
tp4631
Rp4632
(I1
(L4L
L3L
tp4633
g73
I00
S'\x00\x00\x01\x01\x01\x01\x00\x00\x01\x01\x01\x01'
p4634
tp4635
bsg78
I-3958
sbsg0
(g15
g2
Ntp4636
Rp4637
(dp4638
g19
I1
sg20
I0
sg21
I4
sg22
g0
(g23
g2
Ntp4639
Rp4640
(dp4641
g27
I4
sg28
I3
sbsg29
I0
sbg0
(g1
g2
Ntp4642
Rp4643
(dp4644
g6
g4389
sg7
I-3952
sg8
L3231L
sg9
g10
(g11
tp4645
Rp4646
sg22
g60
sg62
g63
(g64
(I0
tp4647
g66
tp4648
Rp4649
(I1
(L4L
L3L
tp4650
g73
I00
S'\x01\x01\x00\x00\x01\x00\x00\x01\x01\x01\x01\x01'
p4651
tp4652
bsg78
I-3952
sbsg0
(g15
g2
Ntp4653
Rp4654
(dp4655
g19
I1
sg20
I2
sg21
I4
sg22
g0
(g23
g2
Ntp4656
Rp4657
(dp4658
g27
I4
sg28
I3
sbsg29
I0
sbg0
(g1
g2
Ntp4659
Rp4660
(dp4661
g6
g4389
sg7
Finf
sg8
L2367L
sg9
g10
(g11
tp4662
Rp4663
I1
(dp4664
g0
(g15
g2
Ntp4665
Rp4666
(dp4667
g19
I2
sg20
I0
sg21
I1
sg22
g0
(g23
g2
Ntp4668
Rp4669
(dp4670
g27
I4
sg28
I3
sbsg29
I1
sbg0
(g1
g2
Ntp4671
Rp4672
(dp4673
g6
g4660
sg7
Finf
sg8
L4095L
sg9
g10
(g11
tp4674
Rp4675
sg22
g60
sg62
g63
(g64
(I0
tp4676
g66
tp4677
Rp4678
(I1
(L4L
L3L
tp4679
g73
I00
S'\x01\x01\x01\x01\x01\x01\x01\x01\x01\x01\x01\x01'
p4680
tp4681
bsg78
Finf
sbsssg22
g60
sg62
g63
(g64
(I0
tp4682
g66
tp4683
Rp4684
(I1
(L4L
L3L
tp4685
g73
I00
S'\x01\x00\x00\x01\x00\x00\x01\x01\x01\x01\x01\x01'
p4686
tp4687
bsg78
I-3954
sbsg0
(g15
g2
Ntp4688
Rp4689
(dp4690
g19
I1
sg20
I1
sg21
I4
sg22
g0
(g23
g2
Ntp4691
Rp4692
(dp4693
g27
I4
sg28
I3
sbsg29
I0
sbg0
(g1
g2
Ntp4694
Rp4695
(dp4696
g6
g4389
sg7
I-3966
sg8
L495L
sg9
g10
(g11
tp4697
Rp4698
sg22
g60
sg62
g63
(g64
(I0
tp4699
g66
tp4700
Rp4701
(I1
(L4L
L3L
tp4702
g73
I00
S'\x00\x00\x00\x01\x01\x01\x01\x00\x01\x01\x01\x01'
p4703
tp4704
bsg78
I-3966
sbssI5
(dp4705
g0
(g15
g2
Ntp4706
Rp4707
(dp4708
g19
I1
sg20
I0
sg21
I5
sg22
g0
(g23
g2
Ntp4709
Rp4710
(dp4711
g27
I4
sg28
I3
sbsg29
I0
sbg0
(g1
g2
Ntp4712
Rp4713
(dp4714
g6
g4389
sg7
I-3959
sg8
L2463L
sg9
g10
(g11
tp4715
Rp4716
sg22
g60
sg62
g63
(g64
(I0
tp4717
g66
tp4718
Rp4719
(I1
(L4L
L3L
tp4720
g73
I00
S'\x01\x00\x00\x01\x01\x00\x00\x01\x01\x01\x01\x01'
p4721
tp4722
bsg78
I-3959
sbsg0
(g15
g2
Ntp4723
Rp4724
(dp4725
g19
I1
sg20
I1
sg21
I5
sg22
g0
(g23
g2
Ntp4726
Rp4727
(dp4728
g27
I4
sg28
I3
sbsg29
I0
sbg0
(g1
g2
Ntp4729
Rp4730
(dp4731
g6
g4389
sg7
Finf
sg8
L255L
sg9
g10
(g11
tp4732
Rp4733
I4
(dp4734
g0
(g15
g2
Ntp4735
Rp4736
(dp4737
g19
I2
sg20
I1
sg21
I4
sg22
g0
(g23
g2
Ntp4738
Rp4739
(dp4740
g27
I4
sg28
I3
sbsg29
I0
sbg0
(g1
g2
Ntp4741
Rp4742
(dp4743
g6
g4730
sg7
Finf
sg8
L4095L
sg9
g10
(g11
tp4744
Rp4745
sg22
g60
sg62
g63
(g64
(I0
tp4746
g66
tp4747
Rp4748
(I1
(L4L
L3L
tp4749
g73
I00
S'\x01\x01\x01\x01\x01\x01\x01\x01\x01\x01\x01\x01'
p4750
tp4751
bsg78
Finf
sbsssg22
g60
sg62
g63
(g64
(I0
tp4752
g66
tp4753
Rp4754
(I1
(L4L
L3L
tp4755
g73
I00
S'\x00\x00\x00\x00\x01\x01\x01\x01\x01\x01\x01\x01'
p4756
tp4757
bsg78
I-3965
sbssI6
(dp4758
g0
(g15
g2
Ntp4759
Rp4760
(dp4761
g19
I2
sg20
I1
sg21
I6
sg22
g0
(g23
g2
Ntp4762
Rp4763
(dp4764
g27
I4
sg28
I3
sbsg29
I0
sbg0
(g1
g2
Ntp4765
Rp4766
(dp4767
g6
g4389
sg7
I-3951
sg8
L3279L
sg9
g10
(g11
tp4768
Rp4769
sg22
g60
sg62
g63
(g64
(I0
tp4770
g66
tp4771
Rp4772
(I1
(L4L
L3L
tp4773
g73
I00
S'\x01\x01\x00\x00\x01\x01\x00\x00\x01\x01\x01\x01'
p4774
tp4775
bsg78
I-3951
sbsg0
(g15
g2
Ntp4776
Rp4777
(dp4778
g19
I1
sg20
I0
sg21
I6
sg22
g0
(g23
g2
Ntp4779
Rp4780
(dp4781
g27
I4
sg28
I3
sbsg29
I0
sbg0
(g1
g2
Ntp4782
Rp4783
(dp4784
g6
g4389
sg7
I-3961
sg8
L1455L
sg9
g10
(g11
tp4785
Rp4786
sg22
g60
sg62
g63
(g64
(I0
tp4787
g66
tp4788
Rp4789
(I1
(L4L
L3L
tp4790
g73
I00
S'\x00\x01\x00\x01\x01\x00\x01\x00\x01\x01\x01\x01'
p4791
tp4792
bsg78
I-3961
sbsg0
(g15
g2
Ntp4793
Rp4794
(dp4795
g19
I1
sg20
I0
sg21
I6
sg22
g0
(g23
g2
Ntp4796
Rp4797
(dp4798
g27
I4
sg28
I3
sbsg29
I1
sbg0
(g1
g2
Ntp4799
Rp4800
(dp4801
g6
g4389
sg7
Finf
sg8
L735L
sg9
g10
(g11
tp4802
Rp4803
I3
(dp4804
g0
(g15
g2
Ntp4805
Rp4806
(dp4807
g19
I1
sg20
I0
sg21
I3
sg22
g0
(g23
g2
Ntp4808
Rp4809
(dp4810
g27
I4
sg28
I3
sbsg29
I0
sbg0
(g1
g2
Ntp4811
Rp4812
(dp4813
g6
g4800
sg7
Finf
sg8
L4095L
sg9
g10
(g11
tp4814
Rp4815
sg22
g60
sg62
g63
(g64
(I0
tp4816
g66
tp4817
Rp4818
(I1
(L4L
L3L
tp4819
g73
I00
S'\x01\x01\x01\x01\x01\x01\x01\x01\x01\x01\x01\x01'
p4820
tp4821
bsg78
Finf
sbsssg22
g60
sg62
g63
(g64
(I0
tp4822
g66
tp4823
Rp4824
(I1
(L4L
L3L
tp4825
g73
I00
S'\x00\x00\x01\x00\x01\x01\x00\x01\x01\x01\x01\x01'
p4826
tp4827
bsg78
I-3957
sbsssg22
g60
sg62
g63
(g64
(I0
tp4828
g66
tp4829
Rp4830
(I1
(L4L
L3L
tp4831
g73
I00
S'\x00\x00\x00\x00\x00\x00\x00\x00\x01\x01\x01\x01'
p4832
tp4833
bsg78
I-7985
sbssI5
(dp4834
g0
(g15
g2
Ntp4835
Rp4836
(dp4837
g19
I0
sg20
I0
sg21
I5
sg22
g0
(g23
g2
Ntp4838
Rp4839
(dp4840
g27
I4
sg28
I3
sbsg29
I0
sbg0
(g1
g2
Ntp4841
Rp4842
(dp4843
g6
g4
sg7
I60
sg8
L306L
sg9
g10
(g11
tp4844
Rp4845
I0
(dp4846
g0
(g15
g2
Ntp4847
Rp4848
(dp4849
g19
I0
sg20
I0
sg21
I0
sg22
g667
sg29
I2
sbg0
(g1
g2
Ntp4850
Rp4851
(dp4852
g6
g4842
sg7
I-2956
sg8
L891L
sg9
g10
(g11
tp4853
Rp4854
sg22
g60
sg62
g63
(g64
(I0
tp4855
g66
tp4856
Rp4857
(I1
(L4L
L3L
tp4858
g73
I00
S'\x00\x00\x01\x01\x00\x01\x01\x01\x01\x00\x01\x01'
p4859
tp4860
bsg78
I-2956
sbssI1
(dp4861
g0
(g15
g2
Ntp4862
Rp4863
(dp4864
g19
I2
sg20
I0
sg21
I1
sg22
g0
(g23
g2
Ntp4865
Rp4866
(dp4867
g27
I4
sg28
I3
sbsg29
I1
sbg0
(g1
g2
Ntp4868
Rp4869
(dp4870
g6
g4842
sg7
I-950
sg8
L2034L
sg9
g10
(g11
tp4871
Rp4872
sg22
g60
sg62
g63
(g64
(I0
tp4873
g66
tp4874
Rp4875
(I1
(L4L
L3L
tp4876
g73
I00
S'\x00\x01\x01\x01\x01\x01\x01\x01\x00\x00\x01\x00'
p4877
tp4878
bsg78
I-950
sbssI2
(dp4879
g0
(g15
g2
Ntp4880
Rp4881
(dp4882
g19
I2
sg20
I3
sg21
I2
sg22
g0
(g23
g2
Ntp4883
Rp4884
(dp4885
g27
I4
sg28
I3
sbsg29
I0
sbg0
(g1
g2
Ntp4886
Rp4887
(dp4888
g6
g4842
sg7
I60
sg8
L4018L
sg9
g10
(g11
tp4889
Rp4890
sg22
g60
sg62
g63
(g64
(I0
tp4891
g66
tp4892
Rp4893
(I1
(L4L
L3L
tp4894
g73
I00
S'\x01\x01\x01\x01\x01\x00\x01\x01\x00\x00\x01\x00'
p4895
tp4896
bsg78
I60
sbsg0
(g15
g2
Ntp4897
Rp4898
(dp4899
g19
I1
sg20
I2
sg21
I2
sg22
g0
(g23
g2
Ntp4900
Rp4901
(dp4902
g27
I4
sg28
I3
sbsg29
I1
sbg0
(g1
g2
Ntp4903
Rp4904
(dp4905
g6
g4842
sg7
I-1957
sg8
L1018L
sg9
g10
(g11
tp4906
Rp4907
sg22
g60
sg62
g63
(g64
(I0
tp4908
g66
tp4909
Rp4910
(I1
(L4L
L3L
tp4911
g73
I00
S'\x00\x00\x01\x01\x01\x01\x01\x01\x01\x00\x01\x00'
p4912
tp4913
bsg78
I-1957
sbssI3
(dp4914
g0
(g15
g2
Ntp4915
Rp4916
(dp4917
g19
I2
sg20
I3
sg21
I3
sg22
g0
(g23
g2
Ntp4918
Rp4919
(dp4920
g27
I4
sg28
I3
sbsg29
I0
sbg0
(g1
g2
Ntp4921
Rp4922
(dp4923
g6
g4842
sg7
I-941
sg8
L3954L
sg9
g10
(g11
tp4924
Rp4925
sg22
g60
sg62
g63
(g64
(I0
tp4926
g66
tp4927
Rp4928
(I1
(L4L
L3L
tp4929
g73
I00
S'\x01\x01\x01\x01\x00\x01\x01\x01\x00\x00\x01\x00'
p4930
tp4931
bsg78
I-941
sbssI4
(dp4932
g0
(g15
g2
Ntp4933
Rp4934
(dp4935
g19
I0
sg20
I0
sg21
I4
sg22
g0
(g23
g2
Ntp4936
Rp4937
(dp4938
g27
I4
sg28
I3
sbsg29
I1
sbg0
(g1
g2
Ntp4939
Rp4940
(dp4941
g6
g4842
sg7
I-2965
sg8
L507L
sg9
g10
(g11
tp4942
Rp4943
sg22
g60
sg62
g63
(g64
(I0
tp4944
g66
tp4945
Rp4946
(I1
(L4L
L3L
tp4947
g73
I00
S'\x00\x00\x00\x01\x01\x01\x01\x01\x01\x00\x01\x01'
p4948
tp4949
bsg78
I-2965
sbssI5
(dp4950
g0
(g15
g2
Ntp4951
Rp4952
(dp4953
g19
I1
sg20
I0
sg21
I5
sg22
g0
(g23
g2
Ntp4954
Rp4955
(dp4956
g27
I4
sg28
I3
sbsg29
I1
sbg0
(g1
g2
Ntp4957
Rp4958
(dp4959
g6
g4842
sg7
I-1960
sg8
L1530L
sg9
g10
(g11
tp4960
Rp4961
sg22
g60
sg62
g63
(g64
(I0
tp4962
g66
tp4963
Rp4964
(I1
(L4L
L3L
tp4965
g73
I00
S'\x00\x01\x00\x01\x01\x01\x01\x01\x01\x00\x01\x00'
p4966
tp4967
bsg78
I-1960
sbssI6
(dp4968
g0
(g15
g2
Ntp4969
Rp4970
(dp4971
g19
I2
sg20
I1
sg21
I6
sg22
g0
(g23
g2
Ntp4972
Rp4973
(dp4974
g27
I4
sg28
I3
sbsg29
I0
sbg0
(g1
g2
Ntp4975
Rp4976
(dp4977
g6
g4842
sg7
I-950
sg8
L3570L
sg9
g10
(g11
tp4978
Rp4979
sg22
g60
sg62
g63
(g64
(I0
tp4980
g66
tp4981
Rp4982
(I1
(L4L
L3L
tp4983
g73
I00
S'\x01\x01\x00\x01\x01\x01\x01\x01\x00\x00\x01\x00'
p4984
tp4985
bsg78
I-950
sbsssg22
g60
sg62
g63
(g64
(I0
tp4986
g66
tp4987
Rp4988
(I1
(L4L
L3L
tp4989
g73
I00
S'\x00\x00\x00\x01\x00\x00\x01\x01\x00\x00\x01\x00'
p4990
tp4991
bsg78
I-2988
sbsg0
(g15
g2
Ntp4992
Rp4993
(dp4994
g19
I0
sg20
I0
sg21
I5
sg22
g0
(g23
g2
Ntp4995
Rp4996
(dp4997
g27
I4
sg28
I3
sbsg29
I1
sbg0
(g1
g2
Ntp4998
Rp4999
(dp5000
g6
g4
sg7
I63
sg8
L153L
sg9
g10
(g11
tp5001
Rp5002
I0
(dp5003
g0
(g15
g2
Ntp5004
Rp5005
(dp5006
g19
I0
sg20
I0
sg21
I0
sg22
g299
sg29
I0
sbg0
(g1
g2
Ntp5007
Rp5008
(dp5009
g6
g4999
sg7
I-2956
sg8
L2493L
sg9
g10
(g11
tp5010
Rp5011
sg22
g60
sg62
g63
(g64
(I0
tp5012
g66
tp5013
Rp5014
(I1
(L4L
L3L
tp5015
g73
I00
S'\x01\x00\x00\x01\x01\x00\x01\x01\x01\x01\x00\x01'
p5016
tp5017
bsg78
I-2956
sbssI3
(dp5018
g0
(g15
g2
Ntp5019
Rp5020
(dp5021
g19
I2
sg20
I3
sg21
I3
sg22
g0
(g23
g2
Ntp5022
Rp5023
(dp5024
g27
I4
sg28
I3
sbsg29
I0
sbg0
(g1
g2
Ntp5025
Rp5026
(dp5027
g6
g4999
sg7
I63
sg8
L3801L
sg9
g10
(g11
tp5028
Rp5029
sg22
g60
sg62
g63
(g64
(I0
tp5030
g66
tp5031
Rp5032
(I1
(L4L
L3L
tp5033
g73
I00
S'\x01\x01\x01\x00\x01\x01\x00\x01\x01\x00\x00\x01'
p5034
tp5035
bsg78
I63
sbsg0
(g15
g2
Ntp5036
Rp5037
(dp5038
g19
I1
sg20
I0
sg21
I3
sg22
g0
(g23
g2
Ntp5039
Rp5040
(dp5041
g27
I4
sg28
I3
sbsg29
I0
sbg0
(g1
g2
Ntp5042
Rp5043
(dp5044
g6
g4999
sg7
I-1947
sg8
L3513L
sg9
g10
(g11
tp5045
Rp5046
sg22
g60
sg62
g63
(g64
(I0
tp5047
g66
tp5048
Rp5049
(I1
(L4L
L3L
tp5050
g73
I00
S'\x01\x01\x00\x01\x01\x00\x01\x01\x01\x00\x00\x01'
p5051
tp5052
bsg78
I-1947
sbssI4
(dp5053
g0
(g15
g2
Ntp5054
Rp5055
(dp5056
g19
I2
sg20
I1
sg21
I4
sg22
g0
(g23
g2
Ntp5057
Rp5058
(dp5059
g27
I4
sg28
I3
sbsg29
I0
sbg0
(g1
g2
Ntp5060
Rp5061
(dp5062
g6
g4999
sg7
I-939
sg8
L3993L
sg9
g10
(g11
tp5063
Rp5064
sg22
g60
sg62
g63
(g64
(I0
tp5065
g66
tp5066
Rp5067
(I1
(L4L
L3L
tp5068
g73
I00
S'\x01\x01\x01\x01\x01\x00\x00\x01\x01\x00\x00\x01'
p5069
tp5070
bsg78
I-939
sbsssg22
g60
sg62
g63
(g64
(I0
tp5071
g66
tp5072
Rp5073
(I1
(L4L
L3L
tp5074
g73
I00
S'\x00\x00\x00\x00\x01\x00\x00\x01\x01\x00\x00\x01'
p5075
tp5076
bsg78
I-2988
sbsg0
(g15
g2
Ntp5077
Rp5078
(dp5079
g19
I0
sg20
I1
sg21
I5
sg22
g0
(g23
g2
Ntp5080
Rp5081
(dp5082
g27
I4
sg28
I3
sbsg29
I0
sbg0
(g1
g2
Ntp5083
Rp5084
(dp5085
g6
g4
sg7
I-2941
sg8
L30L
sg9
g10
(g11
tp5086
Rp5087
I1
(dp5088
g0
(g15
g2
Ntp5089
Rp5090
(dp5091
g19
I2
sg20
I0
sg21
I1
sg22
g0
(g23
g2
Ntp5092
Rp5093
(dp5094
g27
I4
sg28
I3
sbsg29
I0
sbg0
(g1
g2
Ntp5095
Rp5096
(dp5097
g6
g5084
sg7
I-2952
sg8
L3486L
sg9
g10
(g11
tp5098
Rp5099
sg22
g60
sg62
g63
(g64
(I0
tp5100
g66
tp5101
Rp5102
(I1
(L4L
L3L
tp5103
g73
I00
S'\x01\x01\x00\x01\x01\x00\x00\x01\x01\x01\x01\x00'
p5104
tp5105
bsg78
I-2952
sbsg0
(g15
g2
Ntp5106
Rp5107
(dp5108
g19
I2
sg20
I0
sg21
I1
sg22
g0
(g23
g2
Ntp5109
Rp5110
(dp5111
g27
I4
sg28
I3
sbsg29
I1
sbg0
(g1
g2
Ntp5112
Rp5113
(dp5114
g6
g5084
sg7
I-2950
sg8
L1758L
sg9
g10
(g11
tp5115
Rp5116
sg22
g60
sg62
g63
(g64
(I0
tp5117
g66
tp5118
Rp5119
(I1
(L4L
L3L
tp5120
g73
I00
S'\x00\x01\x01\x00\x01\x01\x00\x01\x01\x01\x01\x00'
p5121
tp5122
bsg78
I-2950
sbssI2
(dp5123
g0
(g15
g2
Ntp5124
Rp5125
(dp5126
g19
I2
sg20
I1
sg21
I2
sg22
g0
(g23
g2
Ntp5127
Rp5128
(dp5129
g27
I4
sg28
I3
sbsg29
I0
sbg0
(g1
g2
Ntp5130
Rp5131
(dp5132
g6
g5084
sg7
I-2962
sg8
L1502L
sg9
g10
(g11
tp5133
Rp5134
sg22
g60
sg62
g63
(g64
(I0
tp5135
g66
tp5136
Rp5137
(I1
(L4L
L3L
tp5138
g73
I00
S'\x00\x01\x00\x01\x01\x01\x00\x01\x01\x01\x01\x00'
p5139
tp5140
bsg78
I-2962
sbsg0
(g15
g2
Ntp5141
Rp5142
(dp5143
g19
I2
sg20
I3
sg21
I2
sg22
g0
(g23
g2
Ntp5144
Rp5145
(dp5146
g27
I4
sg28
I3
sbsg29
I0
sbg0
(g1
g2
Ntp5147
Rp5148
(dp5149
g6
g5084
sg7
I-2944
sg8
L3742L
sg9
g10
(g11
tp5150
Rp5151
sg22
g60
sg62
g63
(g64
(I0
tp5152
g66
tp5153
Rp5154
(I1
(L4L
L3L
tp5155
g73
I00
S'\x01\x01\x01\x00\x01\x00\x00\x01\x01\x01\x01\x00'
p5156
tp5157
bsg78
I-2944
sbsg0
(g15
g2
Ntp5158
Rp5159
(dp5160
g19
I1
sg20
I0
sg21
I2
sg22
g0
(g23
g2
Ntp5161
Rp5162
(dp5163
g27
I4
sg28
I3
sbsg29
I0
sbg0
(g1
g2
Ntp5164
Rp5165
(dp5166
g6
g5084
sg7
I-2957
sg8
L2494L
sg9
g10
(g11
tp5167
Rp5168
sg22
g60
sg62
g63
(g64
(I0
tp5169
g66
tp5170
Rp5171
(I1
(L4L
L3L
tp5172
g73
I00
S'\x01\x00\x00\x01\x01\x00\x01\x01\x01\x01\x01\x00'
p5173
tp5174
bsg78
I-2957
sbssI3
(dp5175
g0
(g15
g2
Ntp5176
Rp5177
(dp5178
g19
I2
sg20
I1
sg21
I3
sg22
g0
(g23
g2
Ntp5179
Rp5180
(dp5181
g27
I4
sg28
I3
sbsg29
I0
sbg0
(g1
g2
Ntp5182
Rp5183
(dp5184
g6
g5084
sg7
I-2959
sg8
L2526L
sg9
g10
(g11
tp5185
Rp5186
sg22
g60
sg62
g63
(g64
(I0
tp5187
g66
tp5188
Rp5189
(I1
(L4L
L3L
tp5190
g73
I00
S'\x01\x00\x00\x01\x01\x01\x00\x01\x01\x01\x01\x00'
p5191
tp5192
bsg78
I-2959
sbsg0
(g15
g2
Ntp5193
Rp5194
(dp5195
g19
I2
sg20
I3
sg21
I3
sg22
g0
(g23
g2
Ntp5196
Rp5197
(dp5198
g27
I4
sg28
I3
sbsg29
I0
sbg0
(g1
g2
Ntp5199
Rp5200
(dp5201
g6
g5084
sg7
I-2941
sg8
L3678L
sg9
g10
(g11
tp5202
Rp5203
sg22
g60
sg62
g63
(g64
(I0
tp5204
g66
tp5205
Rp5206
(I1
(L4L
L3L
tp5207
g73
I00
S'\x01\x01\x01\x00\x00\x01\x00\x01\x01\x01\x01\x00'
p5208
tp5209
bsg78
I-2941
sbsg0
(g15
g2
Ntp5210
Rp5211
(dp5212
g19
I1
sg20
I0
sg21
I3
sg22
g0
(g23
g2
Ntp5213
Rp5214
(dp5215
g27
I4
sg28
I3
sbsg29
I0
sbg0
(g1
g2
Ntp5216
Rp5217
(dp5218
g6
g5084
sg7
I-2949
sg8
L3390L
sg9
g10
(g11
tp5219
Rp5220
sg22
g60
sg62
g63
(g64
(I0
tp5221
g66
tp5222
Rp5223
(I1
(L4L
L3L
tp5224
g73
I00
S'\x01\x01\x00\x01\x00\x00\x01\x01\x01\x01\x01\x00'
p5225
tp5226
bsg78
I-2949
sbssI4
(dp5227
g0
(g15
g2
Ntp5228
Rp5229
(dp5230
g19
I2
sg20
I3
sg21
I4
sg22
g0
(g23
g2
Ntp5231
Rp5232
(dp5233
g27
I4
sg28
I3
sbsg29
I0
sbg0
(g1
g2
Ntp5234
Rp5235
(dp5236
g6
g5084
sg7
I-2959
sg8
L990L
sg9
g10
(g11
tp5237
Rp5238
sg22
g60
sg62
g63
(g64
(I0
tp5239
g66
tp5240
Rp5241
(I1
(L4L
L3L
tp5242
g73
I00
S'\x00\x00\x01\x01\x01\x01\x00\x01\x01\x01\x01\x00'
p5243
tp5244
bsg78
I-2959
sbsg0
(g15
g2
Ntp5245
Rp5246
(dp5247
g19
I1
sg20
I1
sg21
I4
sg22
g0
(g23
g2
Ntp5248
Rp5249
(dp5250
g27
I4
sg28
I3
sbsg29
I0
sbg0
(g1
g2
Ntp5251
Rp5252
(dp5253
g6
g5084
sg7
I-2965
sg8
L510L
sg9
g10
(g11
tp5254
Rp5255
sg22
g60
sg62
g63
(g64
(I0
tp5256
g66
tp5257
Rp5258
(I1
(L4L
L3L
tp5259
g73
I00
S'\x00\x00\x00\x01\x01\x01\x01\x01\x01\x01\x01\x00'
p5260
tp5261
bsg78
I-2965
sbssI5
(dp5262
g0
(g15
g2
Ntp5263
Rp5264
(dp5265
g19
I2
sg20
I1
sg21
I5
sg22
g0
(g23
g2
Ntp5266
Rp5267
(dp5268
g27
I4
sg28
I3
sbsg29
I0
sbg0
(g1
g2
Ntp5269
Rp5270
(dp5271
g6
g5084
sg7
I-2954
sg8
L1950L
sg9
g10
(g11
tp5272
Rp5273
sg22
g60
sg62
g63
(g64
(I0
tp5274
g66
tp5275
Rp5276
(I1
(L4L
L3L
tp5277
g73
I00
S'\x00\x01\x01\x01\x01\x00\x00\x01\x01\x01\x01\x00'
p5278
tp5279
bsg78
I-2954
sbssI6
(dp5280
g0
(g15
g2
Ntp5281
Rp5282
(dp5283
g19
I2
sg20
I1
sg21
I6
sg22
g0
(g23
g2
Ntp5284
Rp5285
(dp5286
g27
I4
sg28
I3
sbsg29
I0
sbg0
(g1
g2
Ntp5287
Rp5288
(dp5289
g6
g5084
sg7
I-2952
sg8
L3294L
sg9
g10
(g11
tp5290
Rp5291
sg22
g60
sg62
g63
(g64
(I0
tp5292
g66
tp5293
Rp5294
(I1
(L4L
L3L
tp5295
g73
I00
S'\x01\x01\x00\x00\x01\x01\x00\x01\x01\x01\x01\x00'
p5296
tp5297
bsg78
I-2952
sbsg0
(g15
g2
Ntp5298
Rp5299
(dp5300
g19
I1
sg20
I0
sg21
I6
sg22
g0
(g23
g2
Ntp5301
Rp5302
(dp5303
g27
I4
sg28
I3
sbsg29
I0
sbg0
(g1
g2
Ntp5304
Rp5305
(dp5306
g6
g5084
sg7
I-2960
sg8
L1470L
sg9
g10
(g11
tp5307
Rp5308
sg22
g60
sg62
g63
(g64
(I0
tp5309
g66
tp5310
Rp5311
(I1
(L4L
L3L
tp5312
g73
I00
S'\x00\x01\x00\x01\x01\x00\x01\x01\x01\x01\x01\x00'
p5313
tp5314
bsg78
I-2960
sbsssg22
g60
sg62
g63
(g64
(I0
tp5315
g66
tp5316
Rp5317
(I1
(L4L
L3L
tp5318
g73
I00
S'\x00\x00\x00\x00\x00\x00\x00\x01\x01\x01\x01\x00'
p5319
tp5320
bsg78
I-6988
sbssI6
(dp5321
g0
(g15
g2
Ntp5322
Rp5323
(dp5324
g19
I0
sg20
I0
sg21
I6
sg22
g0
(g23
g2
Ntp5325
Rp5326
(dp5327
g27
I4
sg28
I3
sbsg29
I0
sbg0
(g1
g2
Ntp5328
Rp5329
(dp5330
g6
g4
sg7
I63
sg8
L180L
sg9
g10
(g11
tp5331
Rp5332
I0
(dp5333
g0
(g15
g2
Ntp5334
Rp5335
(dp5336
g19
I0
sg20
I0
sg21
I0
sg22
g685
sg29
I2
sbg0
(g1
g2
Ntp5337
Rp5338
(dp5339
g6
g5329
sg7
I-2956
sg8
L765L
sg9
g10
(g11
tp5340
Rp5341
sg22
g60
sg62
g63
(g64
(I0
tp5342
g66
tp5343
Rp5344
(I1
(L4L
L3L
tp5345
g73
I00
S'\x00\x00\x01\x00\x01\x01\x01\x01\x01\x01\x00\x01'
p5346
tp5347
bsg78
I-2956
sbssI3
(dp5348
g0
(g15
g2
Ntp5349
Rp5350
(dp5351
g19
I2
sg20
I3
sg21
I3
sg22
g0
(g23
g2
Ntp5352
Rp5353
(dp5354
g27
I4
sg28
I3
sbsg29
I0
sbg0
(g1
g2
Ntp5355
Rp5356
(dp5357
g6
g5329
sg7
I-939
sg8
L3828L
sg9
g10
(g11
tp5358
Rp5359
sg22
g60
sg62
g63
(g64
(I0
tp5360
g66
tp5361
Rp5362
(I1
(L4L
L3L
tp5363
g73
I00
S'\x01\x01\x01\x00\x01\x01\x01\x01\x00\x01\x00\x00'
p5364
tp5365
bsg78
I-939
sbssI4
(dp5366
g0
(g15
g2
Ntp5367
Rp5368
(dp5369
g19
I2
sg20
I1
sg21
I4
sg22
g0
(g23
g2
Ntp5370
Rp5371
(dp5372
g27
I4
sg28
I3
sbsg29
I0
sbg0
(g1
g2
Ntp5373
Rp5374
(dp5375
g6
g5329
sg7
I63
sg8
L4020L
sg9
g10
(g11
tp5376
Rp5377
sg22
g60
sg62
g63
(g64
(I0
tp5378
g66
tp5379
Rp5380
(I1
(L4L
L3L
tp5381
g73
I00
S'\x01\x01\x01\x01\x01\x00\x01\x01\x00\x01\x00\x00'
p5382
tp5383
bsg78
I63
sbsg0
(g15
g2
Ntp5384
Rp5385
(dp5386
g19
I1
sg20
I0
sg21
I4
sg22
g0
(g23
g2
Ntp5387
Rp5388
(dp5389
g27
I4
sg28
I3
sbsg29
I1
sbg0
(g1
g2
Ntp5390
Rp5391
(dp5392
g6
g5329
sg7
I-1947
sg8
L1788L
sg9
g10
(g11
tp5393
Rp5394
sg22
g60
sg62
g63
(g64
(I0
tp5395
g66
tp5396
Rp5397
(I1
(L4L
L3L
tp5398
g73
I00
S'\x00\x01\x01\x00\x01\x01\x01\x01\x01\x01\x00\x00'
p5399
tp5400
bsg78
I-1947
sbsssg22
g60
sg62
g63
(g64
(I0
tp5401
g66
tp5402
Rp5403
(I1
(L4L
L3L
tp5404
g73
I00
S'\x00\x00\x00\x00\x01\x00\x01\x01\x00\x01\x00\x00'
p5405
tp5406
bsg78
I-2988
sbsg0
(g15
g2
Ntp5407
Rp5408
(dp5409
g19
I0
sg20
I0
sg21
I6
sg22
g0
(g23
g2
Ntp5410
Rp5411
(dp5412
g27
I4
sg28
I3
sbsg29
I1
sbg0
(g1
g2
Ntp5413
Rp5414
(dp5415
g6
g4
sg7
I60
sg8
L90L
sg9
g10
(g11
tp5416
Rp5417
I0
(dp5418
g0
(g15
g2
Ntp5419
Rp5420
(dp5421
g19
I0
sg20
I0
sg21
I0
sg22
g317
sg29
I0
sbg0
(g1
g2
Ntp5422
Rp5423
(dp5424
g6
g5414
sg7
I-2956
sg8
L2430L
sg9
g10
(g11
tp5425
Rp5426
sg22
g60
sg62
g63
(g64
(I0
tp5427
g66
tp5428
Rp5429
(I1
(L4L
L3L
tp5430
g73
I00
S'\x01\x00\x00\x01\x00\x01\x01\x01\x01\x01\x01\x00'
p5431
tp5432
bsg78
I-2956
sbssI1
(dp5433
g0
(g15
g2
Ntp5434
Rp5435
(dp5436
g19
I2
sg20
I0
sg21
I1
sg22
g0
(g23
g2
Ntp5437
Rp5438
(dp5439
g27
I4
sg28
I3
sbsg29
I0
sbg0
(g1
g2
Ntp5440
Rp5441
(dp5442
g6
g5414
sg7
I-950
sg8
L3546L
sg9
g10
(g11
tp5443
Rp5444
sg22
g60
sg62
g63
(g64
(I0
tp5445
g66
tp5446
Rp5447
(I1
(L4L
L3L
tp5448
g73
I00
S'\x01\x01\x00\x01\x01\x01\x00\x01\x01\x00\x01\x00'
p5449
tp5450
bsg78
I-950
sbssI2
(dp5451
g0
(g15
g2
Ntp5452
Rp5453
(dp5454
g19
I2
sg20
I3
sg21
I2
sg22
g0
(g23
g2
Ntp5455
Rp5456
(dp5457
g27
I4
sg28
I3
sbsg29
I0
sbg0
(g1
g2
Ntp5458
Rp5459
(dp5460
g6
g5414
sg7
I60
sg8
L3802L
sg9
g10
(g11
tp5461
Rp5462
sg22
g60
sg62
g63
(g64
(I0
tp5463
g66
tp5464
Rp5465
(I1
(L4L
L3L
tp5466
g73
I00
S'\x01\x01\x01\x00\x01\x01\x00\x01\x01\x00\x01\x00'
p5467
tp5468
bsg78
I60
sbsg0
(g15
g2
Ntp5469
Rp5470
(dp5471
g19
I1
sg20
I0
sg21
I2
sg22
g0
(g23
g2
Ntp5472
Rp5473
(dp5474
g27
I4
sg28
I3
sbsg29
I0
sbg0
(g1
g2
Ntp5475
Rp5476
(dp5477
g6
g5414
sg7
I-1957
sg8
L2554L
sg9
g10
(g11
tp5478
Rp5479
sg22
g60
sg62
g63
(g64
(I0
tp5480
g66
tp5481
Rp5482
(I1
(L4L
L3L
tp5483
g73
I00
S'\x01\x00\x00\x01\x01\x01\x01\x01\x01\x00\x01\x00'
p5484
tp5485
bsg78
I-1957
sbssI3
(dp5486
g0
(g15
g2
Ntp5487
Rp5488
(dp5489
g19
I0
sg20
I0
sg21
I3
sg22
g0
(g23
g2
Ntp5490
Rp5491
(dp5492
g27
I4
sg28
I3
sbsg29
I0
sbg0
(g1
g2
Ntp5493
Rp5494
(dp5495
g6
g5414
sg7
I-2965
sg8
L510L
sg9
g10
(g11
tp5496
Rp5497
sg22
g60
sg62
g63
(g64
(I0
tp5498
g66
tp5499
Rp5500
(I1
(L4L
L3L
tp5501
g73
I00
S'\x00\x00\x00\x01\x01\x01\x01\x01\x01\x01\x01\x00'
p5502
tp5503
bsg78
I-2965
sbssI4
(dp5504
g0
(g15
g2
Ntp5505
Rp5506
(dp5507
g19
I2
sg20
I1
sg21
I4
sg22
g0
(g23
g2
Ntp5508
Rp5509
(dp5510
g27
I4
sg28
I3
sbsg29
I0
sbg0
(g1
g2
Ntp5511
Rp5512
(dp5513
g6
g5414
sg7
I-941
sg8
L3930L
sg9
g10
(g11
tp5514
Rp5515
sg22
g60
sg62
g63
(g64
(I0
tp5516
g66
tp5517
Rp5518
(I1
(L4L
L3L
tp5519
g73
I00
S'\x01\x01\x01\x01\x00\x01\x00\x01\x01\x00\x01\x00'
p5520
tp5521
bsg78
I-941
sbssI5
(dp5522
g0
(g15
g2
Ntp5523
Rp5524
(dp5525
g19
I2
sg20
I1
sg21
I5
sg22
g0
(g23
g2
Ntp5526
Rp5527
(dp5528
g27
I4
sg28
I3
sbsg29
I0
sbg0
(g1
g2
Ntp5529
Rp5530
(dp5531
g6
g5414
sg7
I-950
sg8
L2010L
sg9
g10
(g11
tp5532
Rp5533
sg22
g60
sg62
g63
(g64
(I0
tp5534
g66
tp5535
Rp5536
(I1
(L4L
L3L
tp5537
g73
I00
S'\x00\x01\x01\x01\x01\x01\x00\x01\x01\x00\x01\x00'
p5538
tp5539
bsg78
I-950
sbssI6
(dp5540
g0
(g15
g2
Ntp5541
Rp5542
(dp5543
g19
I1
sg20
I0
sg21
I6
sg22
g0
(g23
g2
Ntp5544
Rp5545
(dp5546
g27
I4
sg28
I3
sbsg29
I0
sbg0
(g1
g2
Ntp5547
Rp5548
(dp5549
g6
g5414
sg7
I-1960
sg8
L1530L
sg9
g10
(g11
tp5550
Rp5551
sg22
g60
sg62
g63
(g64
(I0
tp5552
g66
tp5553
Rp5554
(I1
(L4L
L3L
tp5555
g73
I00
S'\x00\x01\x00\x01\x01\x01\x01\x01\x01\x00\x01\x00'
p5556
tp5557
bsg78
I-1960
sbsssg22
g60
sg62
g63
(g64
(I0
tp5558
g66
tp5559
Rp5560
(I1
(L4L
L3L
tp5561
g73
I00
S'\x00\x00\x00\x00\x00\x01\x00\x01\x01\x00\x01\x00'
p5562
tp5563
bsg78
I-2988
sbsg0
(g15
g2
Ntp5564
Rp5565
(dp5566
g19
I0
sg20
I1
sg21
I6
sg22
g0
(g23
g2
Ntp5567
Rp5568
(dp5569
g27
I4
sg28
I3
sbsg29
I0
sbg0
(g1
g2
Ntp5570
Rp5571
(dp5572
g6
g4
sg7
I-2941
sg8
L51L
sg9
g10
(g11
tp5573
Rp5574
I1
(dp5575
g0
(g15
g2
Ntp5576
Rp5577
(dp5578
g19
I2
sg20
I0
sg21
I1
sg22
g0
(g23
g2
Ntp5579
Rp5580
(dp5581
g27
I4
sg28
I3
sbsg29
I0
sbg0
(g1
g2
Ntp5582
Rp5583
(dp5584
g6
g5571
sg7
I-2950
sg8
L3507L
sg9
g10
(g11
tp5585
Rp5586
sg22
g60
sg62
g63
(g64
(I0
tp5587
g66
tp5588
Rp5589
(I1
(L4L
L3L
tp5590
g73
I00
S'\x01\x01\x00\x01\x01\x00\x01\x01\x00\x00\x01\x01'
p5591
tp5592
bsg78
I-2950
sbsg0
(g15
g2
Ntp5593
Rp5594
(dp5595
g19
I2
sg20
I0
sg21
I1
sg22
g0
(g23
g2
Ntp5596
Rp5597
(dp5598
g27
I4
sg28
I3
sbsg29
I1
sbg0
(g1
g2
Ntp5599
Rp5600
(dp5601
g6
g5571
sg7
I-2952
sg8
L1779L
sg9
g10
(g11
tp5602
Rp5603
sg22
g60
sg62
g63
(g64
(I0
tp5604
g66
tp5605
Rp5606
(I1
(L4L
L3L
tp5607
g73
I00
S'\x00\x01\x01\x00\x01\x01\x01\x01\x00\x00\x01\x01'
p5608
tp5609
bsg78
I-2952
sbssI2
(dp5610
g0
(g15
g2
Ntp5611
Rp5612
(dp5613
g19
I2
sg20
I1
sg21
I2
sg22
g0
(g23
g2
Ntp5614
Rp5615
(dp5616
g27
I4
sg28
I3
sbsg29
I0
sbg0
(g1
g2
Ntp5617
Rp5618
(dp5619
g6
g5571
sg7
I-2962
sg8
L1523L
sg9
g10
(g11
tp5620
Rp5621
sg22
g60
sg62
g63
(g64
(I0
tp5622
g66
tp5623
Rp5624
(I1
(L4L
L3L
tp5625
g73
I00
S'\x00\x01\x00\x01\x01\x01\x01\x01\x00\x00\x01\x01'
p5626
tp5627
bsg78
I-2962
sbsg0
(g15
g2
Ntp5628
Rp5629
(dp5630
g19
I2
sg20
I3
sg21
I2
sg22
g0
(g23
g2
Ntp5631
Rp5632
(dp5633
g27
I4
sg28
I3
sbsg29
I0
sbg0
(g1
g2
Ntp5634
Rp5635
(dp5636
g6
g5571
sg7
I-2944
sg8
L3763L
sg9
g10
(g11
tp5637
Rp5638
sg22
g60
sg62
g63
(g64
(I0
tp5639
g66
tp5640
Rp5641
(I1
(L4L
L3L
tp5642
g73
I00
S'\x01\x01\x01\x00\x01\x00\x01\x01\x00\x00\x01\x01'
p5643
tp5644
bsg78
I-2944
sbsg0
(g15
g2
Ntp5645
Rp5646
(dp5647
g19
I1
sg20
I2
sg21
I2
sg22
g0
(g23
g2
Ntp5648
Rp5649
(dp5650
g27
I4
sg28
I3
sbsg29
I1
sbg0
(g1
g2
Ntp5651
Rp5652
(dp5653
g6
g5571
sg7
I-2957
sg8
L763L
sg9
g10
(g11
tp5654
Rp5655
sg22
g60
sg62
g63
(g64
(I0
tp5656
g66
tp5657
Rp5658
(I1
(L4L
L3L
tp5659
g73
I00
S'\x00\x00\x01\x00\x01\x01\x01\x01\x01\x00\x01\x01'
p5660
tp5661
bsg78
I-2957
sbssI3
(dp5662
g0
(g15
g2
Ntp5663
Rp5664
(dp5665
g19
I2
sg20
I1
sg21
I3
sg22
g0
(g23
g2
Ntp5666
Rp5667
(dp5668
g27
I4
sg28
I3
sbsg29
I0
sbg0
(g1
g2
Ntp5669
Rp5670
(dp5671
g6
g5571
sg7
I-2959
sg8
L2547L
sg9
g10
(g11
tp5672
Rp5673
sg22
g60
sg62
g63
(g64
(I0
tp5674
g66
tp5675
Rp5676
(I1
(L4L
L3L
tp5677
g73
I00
S'\x01\x00\x00\x01\x01\x01\x01\x01\x00\x00\x01\x01'
p5678
tp5679
bsg78
I-2959
sbsg0
(g15
g2
Ntp5680
Rp5681
(dp5682
g19
I1
sg20
I3
sg21
I3
sg22
g0
(g23
g2
Ntp5683
Rp5684
(dp5685
g27
I4
sg28
I3
sbsg29
I0
sbg0
(g1
g2
Ntp5686
Rp5687
(dp5688
g6
g5571
sg7
I-2965
sg8
L507L
sg9
g10
(g11
tp5689
Rp5690
sg22
g60
sg62
g63
(g64
(I0
tp5691
g66
tp5692
Rp5693
(I1
(L4L
L3L
tp5694
g73
I00
S'\x00\x00\x00\x01\x01\x01\x01\x01\x01\x00\x01\x01'
p5695
tp5696
bsg78
I-2965
sbssI4
(dp5697
g0
(g15
g2
Ntp5698
Rp5699
(dp5700
g19
I2
sg20
I1
sg21
I4
sg22
g0
(g23
g2
Ntp5701
Rp5702
(dp5703
g27
I4
sg28
I3
sbsg29
I0
sbg0
(g1
g2
Ntp5704
Rp5705
(dp5706
g6
g5571
sg7
I-2941
sg8
L3891L
sg9
g10
(g11
tp5707
Rp5708
sg22
g60
sg62
g63
(g64
(I0
tp5709
g66
tp5710
Rp5711
(I1
(L4L
L3L
tp5712
g73
I00
S'\x01\x01\x01\x01\x00\x00\x01\x01\x00\x00\x01\x01'
p5713
tp5714
bsg78
I-2941
sbsg0
(g15
g2
Ntp5715
Rp5716
(dp5717
g19
I2
sg20
I3
sg21
I4
sg22
g0
(g23
g2
Ntp5718
Rp5719
(dp5720
g27
I4
sg28
I3
sbsg29
I0
sbg0
(g1
g2
Ntp5721
Rp5722
(dp5723
g6
g5571
sg7
I-2959
sg8
L1011L
sg9
g10
(g11
tp5724
Rp5725
sg22
g60
sg62
g63
(g64
(I0
tp5726
g66
tp5727
Rp5728
(I1
(L4L
L3L
tp5729
g73
I00
S'\x00\x00\x01\x01\x01\x01\x01\x01\x00\x00\x01\x01'
p5730
tp5731
bsg78
I-2959
sbsg0
(g15
g2
Ntp5732
Rp5733
(dp5734
g19
I1
sg20
I0
sg21
I4
sg22
g0
(g23
g2
Ntp5735
Rp5736
(dp5737
g27
I4
sg28
I3
sbsg29
I1
sbg0
(g1
g2
Ntp5738
Rp5739
(dp5740
g6
g5571
sg7
I-2949
sg8
L1659L
sg9
g10
(g11
tp5741
Rp5742
sg22
g60
sg62
g63
(g64
(I0
tp5743
g66
tp5744
Rp5745
(I1
(L4L
L3L
tp5746
g73
I00
S'\x00\x01\x01\x00\x00\x01\x01\x01\x01\x00\x01\x01'
p5747
tp5748
bsg78
I-2949
sbssI5
(dp5749
g0
(g15
g2
Ntp5750
Rp5751
(dp5752
g19
I2
sg20
I1
sg21
I5
sg22
g0
(g23
g2
Ntp5753
Rp5754
(dp5755
g27
I4
sg28
I3
sbsg29
I0
sbg0
(g1
g2
Ntp5756
Rp5757
(dp5758
g6
g5571
sg7
I-2952
sg8
L1971L
sg9
g10
(g11
tp5759
Rp5760
sg22
g60
sg62
g63
(g64
(I0
tp5761
g66
tp5762
Rp5763
(I1
(L4L
L3L
tp5764
g73
I00
S'\x00\x01\x01\x01\x01\x00\x01\x01\x00\x00\x01\x01'
p5765
tp5766
bsg78
I-2952
sbsg0
(g15
g2
Ntp5767
Rp5768
(dp5769
g19
I1
sg20
I0
sg21
I5
sg22
g0
(g23
g2
Ntp5770
Rp5771
(dp5772
g27
I4
sg28
I3
sbsg29
I1
sbg0
(g1
g2
Ntp5773
Rp5774
(dp5775
g6
g5571
sg7
I-2960
sg8
L1275L
sg9
g10
(g11
tp5776
Rp5777
sg22
g60
sg62
g63
(g64
(I0
tp5778
g66
tp5779
Rp5780
(I1
(L4L
L3L
tp5781
g73
I00
S'\x00\x01\x00\x00\x01\x01\x01\x01\x01\x00\x01\x01'
p5782
tp5783
bsg78
I-2960
sbssI6
(dp5784
g0
(g15
g2
Ntp5785
Rp5786
(dp5787
g19
I2
sg20
I1
sg21
I6
sg22
g0
(g23
g2
Ntp5788
Rp5789
(dp5790
g27
I4
sg28
I3
sbsg29
I0
sbg0
(g1
g2
Ntp5791
Rp5792
(dp5793
g6
g5571
sg7
I-2954
sg8
L3315L
sg9
g10
(g11
tp5794
Rp5795
sg22
g60
sg62
g63
(g64
(I0
tp5796
g66
tp5797
Rp5798
(I1
(L4L
L3L
tp5799
g73
I00
S'\x01\x01\x00\x00\x01\x01\x01\x01\x00\x00\x01\x01'
p5800
tp5801
bsg78
I-2954
sbsssg22
g60
sg62
g63
(g64
(I0
tp5802
g66
tp5803
Rp5804
(I1
(L4L
L3L
tp5805
g73
I00
S'\x00\x00\x00\x00\x00\x00\x01\x01\x00\x00\x01\x01'
p5806
tp5807
bsg78
I-6988
sbsssg22
g60
sg62
g63
(g64
(I0
tp5808
g66
tp5809
Rp5810
(I1
(L4L
L3L
tp5811
g73
I00
S'\x00\x00\x00\x00\x00\x00\x00\x00\x00\x00\x00\x00'
p5812
tp5813
bsg78
Finf
sb.