ccopy_reg
_reconstructor
p1
(ctree
State
p2
c__builtin__
object
p3
NtRp4
(dp5
S'parent'
p6
NsS'max_utility'
p7
Finf
sS'_bhash'
p8
L0L
sS'actions'
p9
ccollections
defaultdict
p10
(c__builtin__
dict
p11
tRp12
I0
(dp13
g1
(ctree
Action
p14
g3
NtRp15
(dp16
S'h'
I0
sS'rotation'
p17
I0
sS'piece'
p18
I0
sS'board'
p19
g1
(ctree
Board
p20
g3
NtRp21
(dp22
S'_height'
p23
I4
sS'_width'
p24
I2
sbsS'w'
I0
sbg1
(g2
g3
NtRp25
(dp26
g6
g4
sg7
Finf
sg8
L170L
sg9
g10
(g11
tRp27
I0
(dp28
g1
(g14
g3
NtRp29
(dp30
S'h'
I0
sg17
I0
sg18
I0
sg19
g1
(g20
g3
NtRp31
(dp32
g23
I4
sg24
I2
sbsS'w'
I1
sbg1
(g2
g3
NtRp33
(dp34
g6
g25
sg7
Finf
sg8
L255L
sg9
g10
(g11
tRp35
sg19
g1
(g20
g3
NtRp36
(dp37
g23
I4
sg24
I2
sbsS'_board_state'
p38
cnumpy.core.multiarray
_reconstruct
p39
(cnumpy
ndarray
p40
(I0
tS'b'
tRp41
(I1
(L4L
L2L
tcnumpy
dtype
p42
(S'b1'
I0
I1
tRp43
(I3
S'|'
NNNI-1
I-1
I0
tbI00
S'\x01\x01\x01\x01\x01\x01\x01\x01'
tbsS'utility'
p44
Finf
sbsssg19
g36
sg38
g39
(g40
(I0
tS'b'
tRp45
(I1
(L4L
L2L
tg43
I00
S'\x01\x00\x01\x00\x01\x00\x01\x00'
tbsg44
I28
sbsg1
(g14
g3
NtRp46
(dp47
S'h'
I0
sg17
I0
sg18
I0
sg19
g1
(g20
g3
NtRp48
(dp49
g23
I4
sg24
I2
sbsS'w'
I1
sbg1
(g2
g3
NtRp50
(dp51
g6
g4
sg7
Finf
sg8
L85L
sg9
g10
(g11
tRp52
I0
(dp53
g1
(g14
g3
NtRp54
(dp55
S'h'
I0
sg17
I0
sg18
I0
sg19
g31
sS'w'
I0
sbg1
(g2
g3
NtRp56
(dp57
g6
g50
sg7
Finf
sg8
L255L
sg9
g10
(g11
tRp58
sg19
g36
sg38
g39
(g40
(I0
tS'b'
tRp59
(I1
(L4L
L2L
tg43
I00
S'\x01\x01\x01\x01\x01\x01\x01\x01'
tbsg44
Finf
sbsssg19
g36
sg38
g39
(g40
(I0
tS'b'
tRp60
(I1
(L4L
L2L
tg43
I00
S'\x00\x01\x00\x01\x00\x01\x00\x01'
tbsg44
I28
sbssI1
(dp61
g1
(g14
g3
NtRp62
(dp63
S'h'
I0
sg17
I0
sg18
I1
sg19
g1
(g20
g3
NtRp64
(dp65
g23
I4
sg24
I2
sbsS'w'
I0
sbg1
(g2
g3
NtRp66
(dp67
g6
g4
sg7
Finf
sg8
L15L
sg9
g10
(g11
tRp68
I1
(dp69
g1
(g14
g3
NtRp70
(dp71
S'h'
I2
sg17
I0
sg18
I1
sg19
g1
(g20
g3
NtRp72
(dp73
g23
I4
sg24
I2
sbsS'w'
I0
sbg1
(g2
g3
NtRp74
(dp75
g6
g66
sg7
Finf
sg8
L255L
sg9
g10
(g11
tRp76
sg19
g36
sg38
g39
(g40
(I0
tS'b'
tRp77
(I1
(L4L
L2L
tg43
I00
S'\x01\x01\x01\x01\x01\x01\x01\x01'
tbsg44
Finf
sbsssg19
g36
sg38
g39
(g40
(I0
tS'b'
tRp78
(I1
(L4L
L2L
tg43
I00
S'\x00\x00\x00\x00\x01\x01\x01\x01'
tbsg44
I-3980
sbssI2
(dp79
g1
(g14
g3
NtRp80
(dp81
S'h'
I0
sg17
I0
sg18
I2
sg19
g1
(g20
g3
NtRp82
(dp83
g23
I4
sg24
I2
sbsS'w'
I0
sbg1
(g2
g3
NtRp84
(dp85
g6
g4
sg7
I-2982
sg8
L46L
sg9
g10
(g11
tRp86
sg19
g36
sg38
g39
(g40
(I0
tS'b'
tRp87
(I1
(L4L
L2L
tg43
I00
S'\x00\x00\x01\x00\x01\x01\x01\x00'
tbsg44
I-2982
sbsg1
(g14
g3
NtRp88
(dp89
S'h'
I0
sg17
I2
sg18
I2
sg19
g1
(g20
g3
NtRp90
(dp91
g23
I4
sg24
I2
sbsS'w'
I0
sbg1
(g2
g3
NtRp92
(dp93
g6
g4
sg7
I-2982
sg8
L29L
sg9
g10
(g11
tRp94
sg19
g36
sg38
g39
(g40
(I0
tS'b'
tRp95
(I1
(L4L
L2L
tg43
I00
S'\x00\x00\x00\x01\x01\x01\x00\x01'
tbsg44
I-2982
sbssI3
(dp96
g1
(g14
g3
NtRp97
(dp98
S'h'
I0
sg17
I0
sg18
I3
sg19
g1
(g20
g3
NtRp99
(dp100
g23
I4
sg24
I2
sbsS'w'
I0
sbg1
(g2
g3
NtRp101
(dp102
g6
g4
sg7
I-1982
sg8
L58L
sg9
g10
(g11
tRp103
sg19
g36
sg38
g39
(g40
(I0
tS'b'
tRp104
(I1
(L4L
L2L
tg43
I00
S'\x00\x00\x01\x01\x01\x00\x01\x00'
tbsg44
I-1982
sbsg1
(g14
g3
NtRp105
(dp106
S'h'
I0
sg17
I2
sg18
I3
sg19
g1
(g20
g3
NtRp107
(dp108
g23
I4
sg24
I2
sbsS'w'
I0
sbg1
(g2
g3
NtRp109
(dp110
g6
g4
sg7
Finf
sg8
L23L
sg9
g10
(g11
tRp111
I3
(dp112
g1
(g14
g3
NtRp113
(dp114
S'h'
I1
sg17
I0
sg18
I3
sg19
g1
(g20
g3
NtRp115
(dp116
g23
I4
sg24
I2
sbsS'w'
I0
sbg1
(g2
g3
NtRp117
(dp118
g6
g109
sg7
Finf
sg8
L255L
sg9
g10
(g11
tRp119
sg19
g36
sg38
g39
(g40
(I0
tS'b'
tRp120
(I1
(L4L
L2L
tg43
I00
S'\x01\x01\x01\x01\x01\x01\x01\x01'
tbsg44
Finf
sbsssg19
g36
sg38
g39
(g40
(I0
tS'b'
tRp121
(I1
(L4L
L2L
tg43
I00
S'\x00\x00\x00\x01\x00\x01\x01\x01'
tbsg44
I-3982
sbssI4
(dp122
g1
(g14
g3
NtRp123
(dp124
S'h'
I0
sg17
I0
sg18
I4
sg19
g1
(g20
g3
NtRp125
(dp126
g23
I4
sg24
I2
sbsS'w'
I0
sbg1
(g2
g3
NtRp127
(dp128
g6
g4
sg7
I-1982
sg8
L53L
sg9
g10
(g11
tRp129
sg19
g36
sg38
g39
(g40
(I0
tS'b'
tRp130
(I1
(L4L
L2L
tg43
I00
S'\x00\x00\x01\x01\x00\x01\x00\x01'
tbsg44
I-1982
sbsg1
(g14
g3
NtRp131
(dp132
S'h'
I0
sg17
I2
sg18
I4
sg19
g1
(g20
g3
NtRp133
(dp134
g23
I4
sg24
I2
sbsS'w'
I0
sbg1
(g2
g3
NtRp135
(dp136
g6
g4
sg7
Finf
sg8
L43L
sg9
g10
(g11
tRp137
I4
(dp138
g1
(g14
g3
NtRp139
(dp140
S'h'
I1
sg17
I0
sg18
I4
sg19
g1
(g20
g3
NtRp141
(dp142
g23
I4
sg24
I2
sbsS'w'
I0
sbg1
(g2
g3
NtRp143
(dp144
g6
g135
sg7
Finf
sg8
L255L
sg9
g10
(g11
tRp145
sg19
g36
sg38
g39
(g40
(I0
tS'b'
tRp146
(I1
(L4L
L2L
tg43
I00
S'\x01\x01\x01\x01\x01\x01\x01\x01'
tbsg44
Finf
sbsssg19
g36
sg38
g39
(g40
(I0
tS'b'
tRp147
(I1
(L4L
L2L
tg43
I00
S'\x00\x00\x01\x00\x01\x00\x01\x01'
tbsg44
I-3982
sbssI5
(dp148
g1
(g14
g3
NtRp149
(dp150
S'h'
I0
sg17
I0
sg18
I5
sg19
g1
(g20
g3
NtRp151
(dp152
g23
I4
sg24
I2
sbsS'w'
I0
sbg1
(g2
g3
NtRp153
(dp154
g6
g4
sg7
I-2982
sg8
L45L
sg9
g10
(g11
tRp155
sg19
g36
sg38
g39
(g40
(I0
tS'b'
tRp156
(I1
(L4L
L2L
tg43
I00
S'\x00\x00\x01\x00\x01\x01\x00\x01'
tbsg44
I-2982
sbssI6
(dp157
g1
(g14
g3
NtRp158
(dp159
S'h'
I0
sg17
I0
sg18
I6
sg19
g1
(g20
g3
NtRp160
(dp161
g23
I4
sg24
I2
sbsS'w'
I0
sbg1
(g2
g3
NtRp162
(dp163
g6
g4
sg7
I-2982
sg8
L30L
sg9
g10
(g11
tRp164
sg19
g36
sg38
g39
(g40
(I0
tS'b'
tRp165
(I1
(L4L
L2L
tg43
I00
S'\x00\x00\x00\x01\x01\x01\x01\x00'
tbsg44
I-2982
sbsssg19
g36
sg38
g39
(g40
(I0
tS'b'
tRp166
(I1
(L4L
L2L
tg43
I00
S'\x00\x00\x00\x00\x00\x00\x00\x00'
tbsg44
Finf
sb.