ccopy_reg
_reconstructor
p0
(ctree
State
p1
c__builtin__
object
p2
Ntp3
Rp4
(dp5
S'parent'
p6
NsS'max_utility'
p7
Finf
sS'_bhash'
p8
L0L
sS'actions'
p9
ccollections
defaultdict
p10
(c__builtin__
dict
p11
tp12
Rp13
I0
(dp14
g0
(ctree
Action
p15
g2
Ntp16
Rp17
(dp18
S'h'
p19
I0
sS'rotation'
p20
I0
sS'piece'
p21
I0
sS'board'
p22
g0
(ctree
Board
p23
g2
Ntp24
Rp25
(dp26
S'_height'
p27
I4
sS'_width'
p28
I2
sbsS'w'
p29
I0
sbg0
(g1
g2
Ntp30
Rp31
(dp32
g6
g4
sg7
Finf
sg8
L170L
sg9
g10
(g11
tp33
Rp34
I0
(dp35
g0
(g15
g2
Ntp36
Rp37
(dp38
g19
I0
sg20
I0
sg21
I0
sg22
g0
(g23
g2
Ntp39
Rp40
(dp41
g27
I4
sg28
I2
sbsg29
I1
sbg0
(g1
g2
Ntp42
Rp43
(dp44
g6
g31
sg7
Finf
sg8
L255L
sg9
g10
(g11
tp45
Rp46
sg22
g0
(g23
g2
Ntp47
Rp48
(dp49
g27
I4
sg28
I2
sbsS'_board_state'
p50
cnumpy.core.multiarray
_reconstruct
p51
(cnumpy
ndarray
p52
(I0
tp53
S'b'
p54
tp55
Rp56
(I1
(L4L
L2L
tp57
cnumpy
dtype
p58
(S'b1'
p59
I0
I1
tp60
Rp61
(I3
S'|'
p62
NNNI-1
I-1
I0
tp63
bI00
S'\x01\x01\x01\x01\x01\x01\x01\x01'
p64
tp65
bsS'utility'
p66
Finf
sbsssg22
g48
sg50
g51
(g52
(I0
tp67
g54
tp68
Rp69
(I1
(L4L
L2L
tp70
g61
I00
S'\x01\x00\x01\x00\x01\x00\x01\x00'
p71
tp72
bsg66
I28
sbsg0
(g15
g2
Ntp73
Rp74
(dp75
g19
I0
sg20
I0
sg21
I0
sg22
g0
(g23
g2
Ntp76
Rp77
(dp78
g27
I4
sg28
I2
sbsg29
I1
sbg0
(g1
g2
Ntp79
Rp80
(dp81
g6
g4
sg7
Finf
sg8
L85L
sg9
g10
(g11
tp82
Rp83
I0
(dp84
g0
(g15
g2
Ntp85
Rp86
(dp87
g19
I0
sg20
I0
sg21
I0
sg22
g40
sg29
I0
sbg0
(g1
g2
Ntp88
Rp89
(dp90
g6
g80
sg7
Finf
sg8
L255L
sg9
g10
(g11
tp91
Rp92
sg22
g48
sg50
g51
(g52
(I0
tp93
g54
tp94
Rp95
(I1
(L4L
L2L
tp96
g61
I00
S'\x01\x01\x01\x01\x01\x01\x01\x01'
p97
tp98
bsg66
Finf
sbsssg22
g48
sg50
g51
(g52
(I0
tp99
g54
tp100
Rp101
(I1
(L4L
L2L
tp102
g61
I00
S'\x00\x01\x00\x01\x00\x01\x00\x01'
p103
tp104
bsg66
I28
sbssI1
(dp105
g0
(g15
g2
Ntp106
Rp107
(dp108
g19
I0
sg20
I0
sg21
I1
sg22
g0
(g23
g2
Ntp109
Rp110
(dp111
g27
I4
sg28
I2
sbsg29
I0
sbg0
(g1
g2
Ntp112
Rp113
(dp114
g6
g4
sg7
Finf
sg8
L15L
sg9
g10
(g11
tp115
Rp116
I1
(dp117
g0
(g15
g2
Ntp118
Rp119
(dp120
g19
I2
sg20
I0
sg21
I1
sg22
g0
(g23
g2
Ntp121
Rp122
(dp123
g27
I4
sg28
I2
sbsg29
I0
sbg0
(g1
g2
Ntp124
Rp125
(dp126
g6
g113
sg7
Finf
sg8
L255L
sg9
g10
(g11
tp127
Rp128
sg22
g48
sg50
g51
(g52
(I0
tp129
g54
tp130
Rp131
(I1
(L4L
L2L
tp132
g61
I00
S'\x01\x01\x01\x01\x01\x01\x01\x01'
p133
tp134
bsg66
Finf
sbsssg22
g48
sg50
g51
(g52
(I0
tp135
g54
tp136
Rp137
(I1
(L4L
L2L
tp138
g61
I00
S'\x00\x00\x00\x00\x01\x01\x01\x01'
p139
tp140
bsg66
I-3980
sbssI2
(dp141
g0
(g15
g2
Ntp142
Rp143
(dp144
g19
I0
sg20
I0
sg21
I2
sg22
g0
(g23
g2
Ntp145
Rp146
(dp147
g27
I4
sg28
I2
sbsg29
I0
sbg0
(g1
g2
Ntp148
Rp149
(dp150
g6
g4
sg7
I-2982
sg8
L46L
sg9
g10
(g11
tp151
Rp152
sg22
g48
sg50
g51
(g52
(I0
tp153
g54
tp154
Rp155
(I1
(L4L
L2L
tp156
g61
I00
S'\x00\x00\x01\x00\x01\x01\x01\x00'
p157
tp158
bsg66
I-2982
sbsg0
(g15
g2
Ntp159
Rp160
(dp161
g19
I0
sg20
I2
sg21
I2
sg22
g0
(g23
g2
Ntp162
Rp163
(dp164
g27
I4
sg28
I2
sbsg29
I0
sbg0
(g1
g2
Ntp165
Rp166
(dp167
g6
g4
sg7
I-2982
sg8
L29L
sg9
g10
(g11
tp168
Rp169
sg22
g48
sg50
g51
(g52
(I0
tp170
g54
tp171
Rp172
(I1
(L4L
L2L
tp173
g61
I00
S'\x00\x00\x00\x01\x01\x01\x00\x01'
p174
tp175
bsg66
I-2982
sbssI3
(dp176
g0
(g15
g2
Ntp177
Rp178
(dp179
g19
I0
sg20
I0
sg21
I3
sg22
g0
(g23
g2
Ntp180
Rp181
(dp182
g27
I4
sg28
I2
sbsg29
I0
sbg0
(g1
g2
Ntp183
Rp184
(dp185
g6
g4
sg7
I-1982
sg8
L58L
sg9
g10
(g11
tp186
Rp187
sg22
g48
sg50
g51
(g52
(I0
tp188
g54
tp189
Rp190
(I1
(L4L
L2L
tp191
g61
I00
S'\x00\x00\x01\x01\x01\x00\x01\x00'
p192
tp193
bsg66
I-1982
sbsg0
(g15
g2
Ntp194
Rp195
(dp196
g19
I0
sg20
I2
sg21
I3
sg22
g0
(g23
g2
Ntp197
Rp198
(dp199
g27
I4
sg28
I2
sbsg29
I0
sbg0
(g1
g2
Ntp200
Rp201
(dp202
g6
g4
sg7
Finf
sg8
L23L
sg9
g10
(g11
tp203
Rp204
I3
(dp205
g0
(g15
g2
Ntp206
Rp207
(dp208
g19
I1
sg20
I0
sg21
I3
sg22
g0
(g23
g2
Ntp209
Rp210
(dp211
g27
I4
sg28
I2
sbsg29
I0
sbg0
(g1
g2
Ntp212
Rp213
(dp214
g6
g201
sg7
Finf
sg8
L255L
sg9
g10
(g11
tp215
Rp216
sg22
g48
sg50
g51
(g52
(I0
tp217
g54
tp218
Rp219
(I1
(L4L
L2L
tp220
g61
I00
S'\x01\x01\x01\x01\x01\x01\x01\x01'
p221
tp222
bsg66
Finf
sbsssg22
g48
sg50
g51
(g52
(I0
tp223
g54
tp224
Rp225
(I1
(L4L
L2L
tp226
g61
I00
S'\x00\x00\x00\x01\x00\x01\x01\x01'
p227
tp228
bsg66
I-3982
sbssI4
(dp229
g0
(g15
g2
Ntp230
Rp231
(dp232
g19
I0
sg20
I0
sg21
I4
sg22
g0
(g23
g2
Ntp233
Rp234
(dp235
g27
I4
sg28
I2
sbsg29
I0
sbg0
(g1
g2
Ntp236
Rp237
(dp238
g6
g4
sg7
I-1982
sg8
L53L
sg9
g10
(g11
tp239
Rp240
sg22
g48
sg50
g51
(g52
(I0
tp241
g54
tp242
Rp243
(I1
(L4L
L2L
tp244
g61
I00
S'\x00\x00\x01\x01\x00\x01\x00\x01'
p245
tp246
bsg66
I-1982
sbsg0
(g15
g2
Ntp247
Rp248
(dp249
g19
I0
sg20
I2
sg21
I4
sg22
g0
(g23
g2
Ntp250
Rp251
(dp252
g27
I4
sg28
I2
sbsg29
I0
sbg0
(g1
g2
Ntp253
Rp254
(dp255
g6
g4
sg7
Finf
sg8
L43L
sg9
g10
(g11
tp256
Rp257
I4
(dp258
g0
(g15
g2
Ntp259
Rp260
(dp261
g19
I1
sg20
I0
sg21
I4
sg22
g0
(g23
g2
Ntp262
Rp263
(dp264
g27
I4
sg28
I2
sbsg29
I0
sbg0
(g1
g2
Ntp265
Rp266
(dp267
g6
g254
sg7
Finf
sg8
L255L
sg9
g10
(g11
tp268
Rp269
sg22
g48
sg50
g51
(g52
(I0
tp270
g54
tp271
Rp272
(I1
(L4L
L2L
tp273
g61
I00
S'\x01\x01\x01\x01\x01\x01\x01\x01'
p274
tp275
bsg66
Finf
sbsssg22
g48
sg50
g51
(g52
(I0
tp276
g54
tp277
Rp278
(I1
(L4L
L2L
tp279
g61
I00
S'\x00\x00\x01\x00\x01\x00\x01\x01'
p280
tp281
bsg66
I-3982
sbssI5
(dp282
g0
(g15
g2
Ntp283
Rp284
(dp285
g19
I0
sg20
I0
sg21
I5
sg22
g0
(g23
g2
Ntp286
Rp287
(dp288
g27
I4
sg28
I2
sbsg29
I0
sbg0
(g1
g2
Ntp289
Rp290
(dp291
g6
g4
sg7
I-2982
sg8
L45L
sg9
g10
(g11
tp292
Rp293
sg22
g48
sg50
g51
(g52
(I0
tp294
g54
tp295
Rp296
(I1
(L4L
L2L
tp297
g61
I00
S'\x00\x00\x01\x00\x01\x01\x00\x01'
p298
tp299
bsg66
I-2982
sbssI6
(dp300
g0
(g15
g2
Ntp301
Rp302
(dp303
g19
I0
sg20
I0
sg21
I6
sg22
g0
(g23
g2
Ntp304
Rp305
(dp306
g27
I4
sg28
I2
sbsg29
I0
sbg0
(g1
g2
Ntp307
Rp308
(dp309
g6
g4
sg7
I-2982
sg8
L30L
sg9
g10
(g11
tp310
Rp311
sg22
g48
sg50
g51
(g52
(I0
tp312
g54
tp313
Rp314
(I1
(L4L
L2L
tp315
g61
I00
S'\x00\x00\x00\x01\x01\x01\x01\x00'
p316
tp317
bsg66
I-2982
sbsssg22
g48
sg50
g51
(g52
(I0
tp318
g54
tp319
Rp320
(I1
(L4L
L2L
tp321
g61
I00
S'\x00\x00\x00\x00\x00\x00\x00\x00'
p322
tp323
bsg66
Finf
sb.