ccopy_reg
_reconstructor
p1
(ctree
State
p2
c__builtin__
object
p3
NtRp4
(dp5
S'parent'
p6
NsS'max_utility'
p7
Finf
sS'_bhash'
p8
L0L
sS'actions'
p9
ccollections
defaultdict
p10
(c__builtin__
dict
p11
tRp12
I0
(dp13
g1
(ctree
Action
p14
g3
NtRp15
(dp16
S'h'
I0
sS'rotation'
p17
I0
sS'piece'
p18
I0
sS'board'
p19
g1
(ctree
Board
p20
g3
NtRp21
(dp22
S'_height'
p23
I4
sS'_width'
p24
I3
sbsS'w'
I0
sbg1
(g2
g3
NtRp25
(dp26
g6
g4
sg7
Finf
sg8
L2340L
sg9
g10
(g11
tRp27
I0
(dp28
g1
(g14
g3
NtRp29
(dp30
S'h'
I0
sg17
I0
sg18
I0
sg19
g1
(g20
g3
NtRp31
(dp32
g23
I4
sg24
I3
sbsS'w'
I1
sbg1
(g2
g3
NtRp33
(dp34
g6
g25
sg7
Finf
sg8
L3510L
sg9
g10
(g11
tRp35
I0
(dp36
g1
(g14
g3
NtRp37
(dp38
S'h'
I0
sg17
I0
sg18
I0
sg19
g1
(g20
g3
NtRp39
(dp40
g23
I4
sg24
I3
sbsS'w'
I2
sbg1
(g2
g3
NtRp41
(dp42
g6
g33
sg7
Finf
sg8
L4095L
sg9
g10
(g11
tRp43
sg19
g1
(g20
g3
NtRp44
(dp45
g23
I4
sg24
I3
sbsS'_board_state'
p46
cnumpy.core.multiarray
_reconstruct
p47
(cnumpy
ndarray
p48
(I0
tS'b'
tRp49
(I1
(L4L
L3L
tcnumpy
dtype
p50
(S'b1'
I0
I1
tRp51
(I3
S'|'
NNNI-1
I-1
I0
tbI00
S'\x01\x01\x01\x01\x01\x01\x01\x01\x01\x01\x01\x01'
tbsS'utility'
p52
Finf
sbsssg19
g44
sg46
g47
(g48
(I0
tS'b'
tRp53
(I1
(L4L
L3L
tg51
I00
S'\x01\x01\x00\x01\x01\x00\x01\x01\x00\x01\x01\x00'
tbsg52
I62
sbsg1
(g14
g3
NtRp54
(dp55
S'h'
I0
sg17
I0
sg18
I0
sg19
g1
(g20
g3
NtRp56
(dp57
g23
I4
sg24
I3
sbsS'w'
I2
sbg1
(g2
g3
NtRp58
(dp59
g6
g25
sg7
Finf
sg8
L2925L
sg9
g10
(g11
tRp60
I0
(dp61
g1
(g14
g3
NtRp62
(dp63
S'h'
I0
sg17
I0
sg18
I0
sg19
g39
sS'w'
I1
sbg1
(g2
g3
NtRp64
(dp65
g6
g58
sg7
Finf
sg8
L4095L
sg9
g10
(g11
tRp66
sg19
g44
sg46
g47
(g48
(I0
tS'b'
tRp67
(I1
(L4L
L3L
tg51
I00
S'\x01\x01\x01\x01\x01\x01\x01\x01\x01\x01\x01\x01'
tbsg52
Finf
sbsssg19
g44
sg46
g47
(g48
(I0
tS'b'
tRp68
(I1
(L4L
L3L
tg51
I00
S'\x01\x00\x01\x01\x00\x01\x01\x00\x01\x01\x00\x01'
tbsg52
I94
sbssI1
(dp69
g1
(g14
g3
NtRp70
(dp71
S'h'
I0
sg17
I0
sg18
I1
sg19
g1
(g20
g3
NtRp72
(dp73
g23
I4
sg24
I3
sbsS'w'
I1
sbg1
(g2
g3
NtRp74
(dp75
g6
g25
sg7
Finf
sg8
L2367L
sg9
g10
(g11
tRp76
I1
(dp77
g1
(g14
g3
NtRp78
(dp79
S'h'
I2
sg17
I0
sg18
I1
sg19
g1
(g20
g3
NtRp80
(dp81
g23
I4
sg24
I3
sbsS'w'
I1
sbg1
(g2
g3
NtRp82
(dp83
g6
g74
sg7
Finf
sg8
L4095L
sg9
g10
(g11
tRp84
sg19
g44
sg46
g47
(g48
(I0
tS'b'
tRp85
(I1
(L4L
L3L
tg51
I00
S'\x01\x01\x01\x01\x01\x01\x01\x01\x01\x01\x01\x01'
tbsg52
Finf
sbsssg19
g44
sg46
g47
(g48
(I0
tS'b'
tRp86
(I1
(L4L
L3L
tg51
I00
S'\x01\x00\x00\x01\x00\x00\x01\x01\x01\x01\x01\x01'
tbsg52
I-241
sbssI2
(dp87
g1
(g14
g3
NtRp88
(dp89
S'h'
I0
sg17
I0
sg18
I2
sg19
g1
(g20
g3
NtRp90
(dp91
g23
I4
sg24
I3
sbsS'w'
I1
sbg1
(g2
g3
NtRp92
(dp93
g6
g25
sg7
I-171
sg8
L2494L
sg9
g10
(g11
tRp94
sg19
g44
sg46
g47
(g48
(I0
tS'b'
tRp95
(I1
(L4L
L3L
tg51
I00
S'\x01\x00\x00\x01\x01\x00\x01\x01\x01\x01\x01\x00'
tbsg52
I-171
sbsg1
(g14
g3
NtRp96
(dp97
S'h'
I0
sg17
I2
sg18
I2
sg19
g1
(g20
g3
NtRp98
(dp99
g23
I4
sg24
I3
sbsS'w'
I1
sbg1
(g2
g3
NtRp100
(dp101
g6
g25
sg7
I-155
sg8
L2429L
sg9
g10
(g11
tRp102
sg19
g44
sg46
g47
(g48
(I0
tS'b'
tRp103
(I1
(L4L
L3L
tg51
I00
S'\x01\x00\x00\x01\x00\x01\x01\x01\x01\x01\x00\x01'
tbsg52
I-155
sbssI3
(dp104
g1
(g14
g3
NtRp105
(dp106
S'h'
I0
sg17
I0
sg18
I3
sg19
g1
(g20
g3
NtRp107
(dp108
g23
I4
sg24
I3
sbsS'w'
I1
sbg1
(g2
g3
NtRp109
(dp110
g6
g25
sg7
I-91
sg8
L2550L
sg9
g10
(g11
tRp111
sg19
g44
sg46
g47
(g48
(I0
tS'b'
tRp112
(I1
(L4L
L3L
tg51
I00
S'\x01\x00\x00\x01\x01\x01\x01\x01\x00\x01\x01\x00'
tbsg52
I-91
sbsg1
(g14
g3
NtRp113
(dp114
S'h'
I0
sg17
I2
sg18
I3
sg19
g1
(g20
g3
NtRp115
(dp116
g23
I4
sg24
I3
sbsS'w'
I1
sbg1
(g2
g3
NtRp117
(dp118
g6
g25
sg7
Finf
sg8
L2415L
sg9
g10
(g11
tRp119
I3
(dp120
g1
(g14
g3
NtRp121
(dp122
S'h'
I1
sg17
I0
sg18
I3
sg19
g1
(g20
g3
NtRp123
(dp124
g23
I4
sg24
I3
sbsS'w'
I1
sbg1
(g2
g3
NtRp125
(dp126
g6
g117
sg7
Finf
sg8
L4095L
sg9
g10
(g11
tRp127
sg19
g44
sg46
g47
(g48
(I0
tS'b'
tRp128
(I1
(L4L
L3L
tg51
I00
S'\x01\x01\x01\x01\x01\x01\x01\x01\x01\x01\x01\x01'
tbsg52
Finf
sbsssg19
g44
sg46
g47
(g48
(I0
tS'b'
tRp129
(I1
(L4L
L3L
tg51
I00
S'\x01\x00\x00\x01\x00\x01\x01\x00\x01\x01\x01\x01'
tbsg52
I-235
sbssI4
(dp130
g1
(g14
g3
NtRp131
(dp132
S'h'
I0
sg17
I0
sg18
I4
sg19
g1
(g20
g3
NtRp133
(dp134
g23
I4
sg24
I3
sbsS'w'
I1
sbg1
(g2
g3
NtRp135
(dp136
g6
g25
sg7
I-75
sg8
L2541L
sg9
g10
(g11
tRp137
sg19
g44
sg46
g47
(g48
(I0
tS'b'
tRp138
(I1
(L4L
L3L
tg51
I00
S'\x01\x00\x00\x01\x01\x01\x01\x00\x01\x01\x00\x01'
tbsg52
I-75
sbsg1
(g14
g3
NtRp139
(dp140
S'h'
I0
sg17
I2
sg18
I4
sg19
g1
(g20
g3
NtRp141
(dp142
g23
I4
sg24
I3
sbsS'w'
I1
sbg1
(g2
g3
NtRp143
(dp144
g6
g25
sg7
Finf
sg8
L2487L
sg9
g10
(g11
tRp145
I4
(dp146
g1
(g14
g3
NtRp147
(dp148
S'h'
I1
sg17
I0
sg18
I4
sg19
g1
(g20
g3
NtRp149
(dp150
g23
I4
sg24
I3
sbsS'w'
I1
sbg1
(g2
g3
NtRp151
(dp152
g6
g143
sg7
Finf
sg8
L4095L
sg9
g10
(g11
tRp153
sg19
g44
sg46
g47
(g48
(I0
tS'b'
tRp154
(I1
(L4L
L3L
tg51
I00
S'\x01\x01\x01\x01\x01\x01\x01\x01\x01\x01\x01\x01'
tbsg52
Finf
sbsssg19
g44
sg46
g47
(g48
(I0
tS'b'
tRp155
(I1
(L4L
L3L
tg51
I00
S'\x01\x00\x00\x01\x01\x00\x01\x01\x00\x01\x01\x01'
tbsg52
I-251
sbssI5
(dp156
g1
(g14
g3
NtRp157
(dp158
S'h'
I0
sg17
I0
sg18
I5
sg19
g1
(g20
g3
NtRp159
(dp160
g23
I4
sg24
I3
sbsS'w'
I1
sbg1
(g2
g3
NtRp161
(dp162
g6
g25
sg7
I-163
sg8
L2493L
sg9
g10
(g11
tRp163
sg19
g44
sg46
g47
(g48
(I0
tS'b'
tRp164
(I1
(L4L
L3L
tg51
I00
S'\x01\x00\x00\x01\x01\x00\x01\x01\x01\x01\x00\x01'
tbsg52
I-163
sbssI6
(dp165
g1
(g14
g3
NtRp166
(dp167
S'h'
I0
sg17
I0
sg18
I6
sg19
g1
(g20
g3
NtRp168
(dp169
g23
I4
sg24
I3
sbsS'w'
I1
sbg1
(g2
g3
NtRp170
(dp171
g6
g25
sg7
I-163
sg8
L2430L
sg9
g10
(g11
tRp172
sg19
g44
sg46
g47
(g48
(I0
tS'b'
tRp173
(I1
(L4L
L3L
tg51
I00
S'\x01\x00\x00\x01\x00\x01\x01\x01\x01\x01\x01\x00'
tbsg52
I-163
sbsssg19
g44
sg46
g47
(g48
(I0
tS'b'
tRp174
(I1
(L4L
L3L
tg51
I00
S'\x01\x00\x00\x01\x00\x00\x01\x00\x00\x01\x00\x00'
tbsg52
I47
sbsg1
(g14
g3
NtRp175
(dp176
S'h'
I0
sg17
I0
sg18
I0
sg19
g1
(g20
g3
NtRp177
(dp178
g23
I4
sg24
I3
sbsS'w'
I1
sbg1
(g2
g3
NtRp179
(dp180
g6
g4
sg7
Finf
sg8
L1170L
sg9
g10
(g11
tRp181
I0
(dp182
g1
(g14
g3
NtRp183
(dp184
S'h'
I0
sg17
I0
sg18
I0
sg19
g31
sS'w'
I0
sbg1
(g2
g3
NtRp185
(dp186
g6
g179
sg7
Finf
sg8
L3510L
sg9
g10
(g11
tRp187
I0
(dp188
g1
(g14
g3
NtRp189
(dp190
S'h'
I0
sg17
I0
sg18
I0
sg19
g39
sS'w'
I2
sbg1
(g2
g3
NtRp191
(dp192
g6
g185
sg7
Finf
sg8
L4095L
sg9
g10
(g11
tRp193
sg19
g44
sg46
g47
(g48
(I0
tS'b'
tRp194
(I1
(L4L
L3L
tg51
I00
S'\x01\x01\x01\x01\x01\x01\x01\x01\x01\x01\x01\x01'
tbsg52
Finf
sbsssg19
g44
sg46
g47
(g48
(I0
tS'b'
tRp195
(I1
(L4L
L3L
tg51
I00
S'\x01\x01\x00\x01\x01\x00\x01\x01\x00\x01\x01\x00'
tbsg52
I62
sbsg1
(g14
g3
NtRp196
(dp197
S'h'
I0
sg17
I0
sg18
I0
sg19
g1
(g20
g3
NtRp198
(dp199
g23
I4
sg24
I3
sbsS'w'
I2
sbg1
(g2
g3
NtRp200
(dp201
g6
g179
sg7
Finf
sg8
L1755L
sg9
g10
(g11
tRp202
I0
(dp203
g1
(g14
g3
NtRp204
(dp205
S'h'
I0
sg17
I0
sg18
I0
sg19
g39
sS'w'
I0
sbg1
(g2
g3
NtRp206
(dp207
g6
g200
sg7
Finf
sg8
L4095L
sg9
g10
(g11
tRp208
sg19
g44
sg46
g47
(g48
(I0
tS'b'
tRp209
(I1
(L4L
L3L
tg51
I00
S'\x01\x01\x01\x01\x01\x01\x01\x01\x01\x01\x01\x01'
tbsg52
Finf
sbsssg19
g44
sg46
g47
(g48
(I0
tS'b'
tRp210
(I1
(L4L
L3L
tg51
I00
S'\x00\x01\x01\x00\x01\x01\x00\x01\x01\x00\x01\x01'
tbsg52
I62
sbsssg19
g44
sg46
g47
(g48
(I0
tS'b'
tRp211
(I1
(L4L
L3L
tg51
I00
S'\x00\x01\x00\x00\x01\x00\x00\x01\x00\x00\x01\x00'
tbsg52
I7
sbsg1
(g14
g3
NtRp212
(dp213
S'h'
I0
sg17
I0
sg18
I0
sg19
g1
(g20
g3
NtRp214
(dp215
g23
I4
sg24
I3
sbsS'w'
I2
sbg1
(g2
g3
NtRp216
(dp217
g6
g4
sg7
Finf
sg8
L585L
sg9
g10
(g11
tRp218
I0
(dp219
g1
(g14
g3
NtRp220
(dp221
S'h'
I0
sg17
I0
sg18
I0
sg19
g56
sS'w'
I0
sbg1
(g2
g3
NtRp222
(dp223
g6
g216
sg7
Finf
sg8
L2925L
sg9
g10
(g11
tRp224
I0
(dp225
g1
(g14
g3
NtRp226
(dp227
S'h'
I0
sg17
I0
sg18
I0
sg19
g39
sS'w'
I1
sbg1
(g2
g3
NtRp228
(dp229
g6
g222
sg7
Finf
sg8
L4095L
sg9
g10
(g11
tRp230
sg19
g44
sg46
g47
(g48
(I0
tS'b'
tRp231
(I1
(L4L
L3L
tg51
I00
S'\x01\x01\x01\x01\x01\x01\x01\x01\x01\x01\x01\x01'
tbsg52
Finf
sbsssg19
g44
sg46
g47
(g48
(I0
tS'b'
tRp232
(I1
(L4L
L3L
tg51
I00
S'\x01\x00\x01\x01\x00\x01\x01\x00\x01\x01\x00\x01'
tbsg52
I94
sbsg1
(g14
g3
NtRp233
(dp234
S'h'
I0
sg17
I0
sg18
I0
sg19
g198
sS'w'
I1
sbg1
(g2
g3
NtRp235
(dp236
g6
g216
sg7
Finf
sg8
L1755L
sg9
g10
(g11
tRp237
I0
(dp238
g1
(g14
g3
NtRp239
(dp240
S'h'
I0
sg17
I0
sg18
I0
sg19
g39
sS'w'
I0
sbg1
(g2
g3
NtRp241
(dp242
g6
g235
sg7
Finf
sg8
L4095L
sg9
g10
(g11
tRp243
sg19
g44
sg46
g47
(g48
(I0
tS'b'
tRp244
(I1
(L4L
L3L
tg51
I00
S'\x01\x01\x01\x01\x01\x01\x01\x01\x01\x01\x01\x01'
tbsg52
Finf
sbsssg19
g44
sg46
g47
(g48
(I0
tS'b'
tRp245
(I1
(L4L
L3L
tg51
I00
S'\x00\x01\x01\x00\x01\x01\x00\x01\x01\x00\x01\x01'
tbsg52
I62
sbssI1
(dp246
g1
(g14
g3
NtRp247
(dp248
S'h'
I0
sg17
I0
sg18
I1
sg19
g1
(g20
g3
NtRp249
(dp250
g23
I4
sg24
I3
sbsS'w'
I0
sbg1
(g2
g3
NtRp251
(dp252
g6
g216
sg7
Finf
sg8
L639L
sg9
g10
(g11
tRp253
I1
(dp254
g1
(g14
g3
NtRp255
(dp256
S'h'
I2
sg17
I0
sg18
I1
sg19
g1
(g20
g3
NtRp257
(dp258
g23
I4
sg24
I3
sbsS'w'
I0
sbg1
(g2
g3
NtRp259
(dp260
g6
g251
sg7
Finf
sg8
L4095L
sg9
g10
(g11
tRp261
sg19
g44
sg46
g47
(g48
(I0
tS'b'
tRp262
(I1
(L4L
L3L
tg51
I00
S'\x01\x01\x01\x01\x01\x01\x01\x01\x01\x01\x01\x01'
tbsg52
Finf
sbsssg19
g44
sg46
g47
(g48
(I0
tS'b'
tRp263
(I1
(L4L
L3L
tg51
I00
S'\x00\x00\x01\x00\x00\x01\x01\x01\x01\x01\x01\x01'
tbsg52
I-241
sbssI2
(dp264
g1
(g14
g3
NtRp265
(dp266
S'h'
I0
sg17
I0
sg18
I2
sg19
g1
(g20
g3
NtRp267
(dp268
g23
I4
sg24
I3
sbsS'w'
I0
sbg1
(g2
g3
NtRp269
(dp270
g6
g216
sg7
I-155
sg8
L893L
sg9
g10
(g11
tRp271
sg19
g44
sg46
g47
(g48
(I0
tS'b'
tRp272
(I1
(L4L
L3L
tg51
I00
S'\x00\x00\x01\x01\x00\x01\x01\x01\x01\x01\x00\x01'
tbsg52
I-155
sbsg1
(g14
g3
NtRp273
(dp274
S'h'
I0
sg17
I2
sg18
I2
sg19
g1
(g20
g3
NtRp275
(dp276
g23
I4
sg24
I3
sbsS'w'
I0
sbg1
(g2
g3
NtRp277
(dp278
g6
g216
sg7
I-171
sg8
L763L
sg9
g10
(g11
tRp279
sg19
g44
sg46
g47
(g48
(I0
tS'b'
tRp280
(I1
(L4L
L3L
tg51
I00
S'\x00\x00\x01\x00\x01\x01\x01\x01\x01\x00\x01\x01'
tbsg52
I-171
sbssI3
(dp281
g1
(g14
g3
NtRp282
(dp283
S'h'
I0
sg17
I0
sg18
I3
sg19
g1
(g20
g3
NtRp284
(dp285
g23
I4
sg24
I3
sbsS'w'
I0
sbg1
(g2
g3
NtRp286
(dp287
g6
g216
sg7
I-75
sg8
L1005L
sg9
g10
(g11
tRp288
sg19
g44
sg46
g47
(g48
(I0
tS'b'
tRp289
(I1
(L4L
L3L
tg51
I00
S'\x00\x00\x01\x01\x01\x01\x01\x00\x01\x01\x00\x01'
tbsg52
I-75
sbsg1
(g14
g3
NtRp290
(dp291
S'h'
I0
sg17
I2
sg18
I3
sg19
g1
(g20
g3
NtRp292
(dp293
g23
I4
sg24
I3
sbsS'w'
I0
sbg1
(g2
g3
NtRp294
(dp295
g6
g216
sg7
Finf
sg8
L735L
sg9
g10
(g11
tRp296
I3
(dp297
g1
(g14
g3
NtRp298
(dp299
S'h'
I1
sg17
I0
sg18
I3
sg19
g1
(g20
g3
NtRp300
(dp301
g23
I4
sg24
I3
sbsS'w'
I0
sbg1
(g2
g3
NtRp302
(dp303
g6
g294
sg7
Finf
sg8
L4095L
sg9
g10
(g11
tRp304
sg19
g44
sg46
g47
(g48
(I0
tS'b'
tRp305
(I1
(L4L
L3L
tg51
I00
S'\x01\x01\x01\x01\x01\x01\x01\x01\x01\x01\x01\x01'
tbsg52
Finf
sbsssg19
g44
sg46
g47
(g48
(I0
tS'b'
tRp306
(I1
(L4L
L3L
tg51
I00
S'\x00\x00\x01\x00\x01\x01\x00\x01\x01\x01\x01\x01'
tbsg52
I-251
sbssI4
(dp307
g1
(g14
g3
NtRp308
(dp309
S'h'
I0
sg17
I0
sg18
I4
sg19
g1
(g20
g3
NtRp310
(dp311
g23
I4
sg24
I3
sbsS'w'
I0
sbg1
(g2
g3
NtRp312
(dp313
g6
g216
sg7
I-91
sg8
L987L
sg9
g10
(g11
tRp314
sg19
g44
sg46
g47
(g48
(I0
tS'b'
tRp315
(I1
(L4L
L3L
tg51
I00
S'\x00\x00\x01\x01\x01\x01\x00\x01\x01\x00\x01\x01'
tbsg52
I-91
sbsg1
(g14
g3
NtRp316
(dp317
S'h'
I0
sg17
I2
sg18
I4
sg19
g1
(g20
g3
NtRp318
(dp319
g23
I4
sg24
I3
sbsS'w'
I0
sbg1
(g2
g3
NtRp320
(dp321
g6
g216
sg7
Finf
sg8
L879L
sg9
g10
(g11
tRp322
I4
(dp323
g1
(g14
g3
NtRp324
(dp325
S'h'
I1
sg17
I0
sg18
I4
sg19
g1
(g20
g3
NtRp326
(dp327
g23
I4
sg24
I3
sbsS'w'
I0
sbg1
(g2
g3
NtRp328
(dp329
g6
g320
sg7
Finf
sg8
L4095L
sg9
g10
(g11
tRp330
sg19
g44
sg46
g47
(g48
(I0
tS'b'
tRp331
(I1
(L4L
L3L
tg51
I00
S'\x01\x01\x01\x01\x01\x01\x01\x01\x01\x01\x01\x01'
tbsg52
Finf
sbsssg19
g44
sg46
g47
(g48
(I0
tS'b'
tRp332
(I1
(L4L
L3L
tg51
I00
S'\x00\x00\x01\x01\x00\x01\x01\x00\x01\x01\x01\x01'
tbsg52
I-235
sbssI5
(dp333
g1
(g14
g3
NtRp334
(dp335
S'h'
I0
sg17
I0
sg18
I5
sg19
g1
(g20
g3
NtRp336
(dp337
g23
I4
sg24
I3
sbsS'w'
I0
sbg1
(g2
g3
NtRp338
(dp339
g6
g216
sg7
I-163
sg8
L891L
sg9
g10
(g11
tRp340
sg19
g44
sg46
g47
(g48
(I0
tS'b'
tRp341
(I1
(L4L
L3L
tg51
I00
S'\x00\x00\x01\x01\x00\x01\x01\x01\x01\x00\x01\x01'
tbsg52
I-163
sbssI6
(dp342
g1
(g14
g3
NtRp343
(dp344
S'h'
I0
sg17
I0
sg18
I6
sg19
g1
(g20
g3
NtRp345
(dp346
g23
I4
sg24
I3
sbsS'w'
I0
sbg1
(g2
g3
NtRp347
(dp348
g6
g216
sg7
I-163
sg8
L765L
sg9
g10
(g11
tRp349
sg19
g44
sg46
g47
(g48
(I0
tS'b'
tRp350
(I1
(L4L
L3L
tg51
I00
S'\x00\x00\x01\x00\x01\x01\x01\x01\x01\x01\x00\x01'
tbsg52
I-163
sbsssg19
g44
sg46
g47
(g48
(I0
tS'b'
tRp351
(I1
(L4L
L3L
tg51
I00
S'\x00\x00\x01\x00\x00\x01\x00\x00\x01\x00\x00\x01'
tbsg52
I47
sbssI1
(dp352
g1
(g14
g3
NtRp353
(dp354
S'h'
I0
sg17
I0
sg18
I1
sg19
g1
(g20
g3
NtRp355
(dp356
g23
I4
sg24
I3
sbsS'w'
I0
sbg1
(g2
g3
NtRp357
(dp358
g6
g4
sg7
Finf
sg8
L54L
sg9
g10
(g11
tRp359
I0
(dp360
g1
(g14
g3
NtRp361
(dp362
S'h'
I0
sg17
I0
sg18
I0
sg19
g249
sS'w'
I2
sbg1
(g2
g3
NtRp363
(dp364
g6
g357
sg7
Finf
sg8
L639L
sg9
g10
(g11
tRp365
I1
(dp366
g1
(g14
g3
NtRp367
(dp368
S'h'
I2
sg17
I0
sg18
I1
sg19
g257
sS'w'
I0
sbg1
(g2
g3
NtRp369
(dp370
g6
g363
sg7
Finf
sg8
L4095L
sg9
g10
(g11
tRp371
sg19
g44
sg46
g47
(g48
(I0
tS'b'
tRp372
(I1
(L4L
L3L
tg51
I00
S'\x01\x01\x01\x01\x01\x01\x01\x01\x01\x01\x01\x01'
tbsg52
Finf
sbsssg19
g44
sg46
g47
(g48
(I0
tS'b'
tRp373
(I1
(L4L
L3L
tg51
I00
S'\x00\x00\x01\x00\x00\x01\x01\x01\x01\x01\x01\x01'
tbsg52
I-241
sbssI1
(dp374
g1
(g14
g3
NtRp375
(dp376
S'h'
I2
sg17
I0
sg18
I1
sg19
g1
(g20
g3
NtRp377
(dp378
g23
I4
sg24
I3
sbsS'w'
I0
sbg1
(g2
g3
NtRp379
(dp380
g6
g357
sg7
Finf
sg8
L3510L
sg9
g10
(g11
tRp381
I0
(dp382
g1
(g14
g3
NtRp383
(dp384
S'h'
I0
sg17
I0
sg18
I0
sg19
g257
sS'w'
I2
sbg1
(g2
g3
NtRp385
(dp386
g6
g379
sg7
Finf
sg8
L4095L
sg9
g10
(g11
tRp387
sg19
g44
sg46
g47
(g48
(I0
tS'b'
tRp388
(I1
(L4L
L3L
tg51
I00
S'\x01\x01\x01\x01\x01\x01\x01\x01\x01\x01\x01\x01'
tbsg52
Finf
sbsssg19
g44
sg46
g47
(g48
(I0
tS'b'
tRp389
(I1
(L4L
L3L
tg51
I00
S'\x01\x01\x00\x01\x01\x00\x01\x01\x00\x01\x01\x00'
tbsg52
I62
sbsg1
(g14
g3
NtRp390
(dp391
S'h'
I2
sg17
I0
sg18
I1
sg19
g1
(g20
g3
NtRp392
(dp393
g23
I4
sg24
I3
sbsS'w'
I1
sbg1
(g2
g3
NtRp394
(dp395
g6
g357
sg7
I-100
sg8
L1782L
sg9
g10
(g11
tRp396
sg19
g44
sg46
g47
(g48
(I0
tS'b'
tRp397
(I1
(L4L
L3L
tg51
I00
S'\x00\x01\x01\x00\x01\x01\x01\x01\x00\x01\x01\x00'
tbsg52
I-100
sbssI2
(dp398
g1
(g14
g3
NtRp399
(dp400
S'h'
I2
sg17
I1
sg18
I2
sg19
g1
(g20
g3
NtRp401
(dp402
g23
I4
sg24
I3
sbsS'w'
I0
sbg1
(g2
g3
NtRp403
(dp404
g6
g357
sg7
I-101
sg8
L1526L
sg9
g10
(g11
tRp405
sg19
g44
sg46
g47
(g48
(I0
tS'b'
tRp406
(I1
(L4L
L3L
tg51
I00
S'\x00\x01\x00\x01\x01\x01\x01\x01\x00\x01\x01\x00'
tbsg52
I-101
sbsg1
(g14
g3
NtRp407
(dp408
S'h'
I2
sg17
I3
sg18
I2
sg19
g1
(g20
g3
NtRp409
(dp410
g23
I4
sg24
I3
sbsS'w'
I0
sbg1
(g2
g3
NtRp411
(dp412
g6
g357
sg7
I-21
sg8
L3766L
sg9
g10
(g11
tRp413
sg19
g44
sg46
g47
(g48
(I0
tS'b'
tRp414
(I1
(L4L
L3L
tg51
I00
S'\x01\x01\x01\x00\x01\x00\x01\x01\x00\x01\x01\x00'
tbsg52
I-21
sbsg1
(g14
g3
NtRp415
(dp416
S'h'
I1
sg17
I2
sg18
I2
sg19
g1
(g20
g3
NtRp417
(dp418
g23
I4
sg24
I3
sbsS'w'
I1
sbg1
(g2
g3
NtRp419
(dp420
g6
g357
sg7
I-171
sg8
L766L
sg9
g10
(g11
tRp421
sg19
g44
sg46
g47
(g48
(I0
tS'b'
tRp422
(I1
(L4L
L3L
tg51
I00
S'\x00\x00\x01\x00\x01\x01\x01\x01\x01\x01\x01\x00'
tbsg52
I-171
sbssI3
(dp423
g1
(g14
g3
NtRp424
(dp425
S'h'
I2
sg17
I1
sg18
I3
sg19
g1
(g20
g3
NtRp426
(dp427
g23
I4
sg24
I3
sbsS'w'
I0
sbg1
(g2
g3
NtRp428
(dp429
g6
g357
sg7
I-91
sg8
L2550L
sg9
g10
(g11
tRp430
sg19
g44
sg46
g47
(g48
(I0
tS'b'
tRp431
(I1
(L4L
L3L
tg51
I00
S'\x01\x00\x00\x01\x01\x01\x01\x01\x00\x01\x01\x00'
tbsg52
I-91
sbsg1
(g14
g3
NtRp432
(dp433
S'h'
I1
sg17
I3
sg18
I3
sg19
g1
(g20
g3
NtRp434
(dp435
g23
I4
sg24
I3
sbsS'w'
I0
sbg1
(g2
g3
NtRp436
(dp437
g6
g357
sg7
I-170
sg8
L510L
sg9
g10
(g11
tRp438
sg19
g44
sg46
g47
(g48
(I0
tS'b'
tRp439
(I1
(L4L
L3L
tg51
I00
S'\x00\x00\x00\x01\x01\x01\x01\x01\x01\x01\x01\x00'
tbsg52
I-170
sbssI4
(dp440
g1
(g14
g3
NtRp441
(dp442
S'h'
I2
sg17
I1
sg18
I4
sg19
g1
(g20
g3
NtRp443
(dp444
g23
I4
sg24
I3
sbsS'w'
I0
sbg1
(g2
g3
NtRp445
(dp446
g6
g357
sg7
I-11
sg8
L3894L
sg9
g10
(g11
tRp447
sg19
g44
sg46
g47
(g48
(I0
tS'b'
tRp448
(I1
(L4L
L3L
tg51
I00
S'\x01\x01\x01\x01\x00\x00\x01\x01\x00\x01\x01\x00'
tbsg52
I-11
sbsg1
(g14
g3
NtRp449
(dp450
S'h'
I0
sg17
I0
sg18
I4
sg19
g1
(g20
g3
NtRp451
(dp452
g23
I4
sg24
I3
sbsS'w'
I1
sbg1
(g2
g3
NtRp453
(dp454
g6
g357
sg7
Finf
sg8
L255L
sg9
g10
(g11
tRp455
I4
(dp456
g1
(g14
g3
NtRp457
(dp458
S'h'
I2
sg17
I1
sg18
I4
sg19
g1
(g20
g3
NtRp459
(dp460
g23
I4
sg24
I3
sbsS'w'
I0
sbg1
(g2
g3
NtRp461
(dp462
g6
g453
sg7
Finf
sg8
L4095L
sg9
g10
(g11
tRp463
sg19
g44
sg46
g47
(g48
(I0
tS'b'
tRp464
(I1
(L4L
L3L
tg51
I00
S'\x01\x01\x01\x01\x01\x01\x01\x01\x01\x01\x01\x01'
tbsg52
Finf
sbsssg19
g44
sg46
g47
(g48
(I0
tS'b'
tRp465
(I1
(L4L
L3L
tg51
I00
S'\x00\x00\x00\x00\x01\x01\x01\x01\x01\x01\x01\x01'
tbsg52
I-250
sbsg1
(g14
g3
NtRp466
(dp467
S'h'
I2
sg17
I3
sg18
I4
sg19
g1
(g20
g3
NtRp468
(dp469
g23
I4
sg24
I3
sbsS'w'
I0
sbg1
(g2
g3
NtRp470
(dp471
g6
g357
sg7
I-91
sg8
L1014L
sg9
g10
(g11
tRp472
sg19
g44
sg46
g47
(g48
(I0
tS'b'
tRp473
(I1
(L4L
L3L
tg51
I00
S'\x00\x00\x01\x01\x01\x01\x01\x01\x00\x01\x01\x00'
tbsg52
I-91
sbssI5
(dp474
g1
(g14
g3
NtRp475
(dp476
S'h'
I2
sg17
I1
sg18
I5
sg19
g1
(g20
g3
NtRp477
(dp478
g23
I4
sg24
I3
sbsS'w'
I0
sbg1
(g2
g3
NtRp479
(dp480
g6
g357
sg7
I-20
sg8
L1974L
sg9
g10
(g11
tRp481
sg19
g44
sg46
g47
(g48
(I0
tS'b'
tRp482
(I1
(L4L
L3L
tg51
I00
S'\x00\x01\x01\x01\x01\x00\x01\x01\x00\x01\x01\x00'
tbsg52
I-20
sbsg1
(g14
g3
NtRp483
(dp484
S'h'
I1
sg17
I0
sg18
I5
sg19
g1
(g20
g3
NtRp485
(dp486
g23
I4
sg24
I3
sbsS'w'
I1
sbg1
(g2
g3
NtRp487
(dp488
g6
g357
sg7
I-181
sg8
L1278L
sg9
g10
(g11
tRp489
sg19
g44
sg46
g47
(g48
(I0
tS'b'
tRp490
(I1
(L4L
L3L
tg51
I00
S'\x00\x01\x00\x00\x01\x01\x01\x01\x01\x01\x01\x00'
tbsg52
I-181
sbssI6
(dp491
g1
(g14
g3
NtRp492
(dp493
S'h'
I2
sg17
I1
sg18
I6
sg19
g1
(g20
g3
NtRp494
(dp495
g23
I4
sg24
I3
sbsS'w'
I0
sbg1
(g2
g3
NtRp496
(dp497
g6
g357
sg7
I-102
sg8
L3318L
sg9
g10
(g11
tRp498
sg19
g44
sg46
g47
(g48
(I0
tS'b'
tRp499
(I1
(L4L
L3L
tg51
I00
S'\x01\x01\x00\x00\x01\x01\x01\x01\x00\x01\x01\x00'
tbsg52
I-102
sbsssg19
g44
sg46
g47
(g48
(I0
tS'b'
tRp500
(I1
(L4L
L3L
tg51
I00
S'\x00\x00\x00\x00\x00\x00\x01\x01\x00\x01\x01\x00'
tbsg52
I-292
sbsg1
(g14
g3
NtRp501
(dp502
S'h'
I0
sg17
I0
sg18
I1
sg19
g1
(g20
g3
NtRp503
(dp504
g23
I4
sg24
I3
sbsS'w'
I1
sbg1
(g2
g3
NtRp505
(dp506
g6
g4
sg7
Finf
sg8
L27L
sg9
g10
(g11
tRp507
I0
(dp508
g1
(g14
g3
NtRp509
(dp510
S'h'
I0
sg17
I0
sg18
I0
sg19
g72
sS'w'
I0
sbg1
(g2
g3
NtRp511
(dp512
g6
g505
sg7
Finf
sg8
L2367L
sg9
g10
(g11
tRp513
I1
(dp514
g1
(g14
g3
NtRp515
(dp516
S'h'
I2
sg17
I0
sg18
I1
sg19
g80
sS'w'
I1
sbg1
(g2
g3
NtRp517
(dp518
g6
g511
sg7
Finf
sg8
L4095L
sg9
g10
(g11
tRp519
sg19
g44
sg46
g47
(g48
(I0
tS'b'
tRp520
(I1
(L4L
L3L
tg51
I00
S'\x01\x01\x01\x01\x01\x01\x01\x01\x01\x01\x01\x01'
tbsg52
Finf
sbsssg19
g44
sg46
g47
(g48
(I0
tS'b'
tRp521
(I1
(L4L
L3L
tg51
I00
S'\x01\x00\x00\x01\x00\x00\x01\x01\x01\x01\x01\x01'
tbsg52
I-241
sbssI1
(dp522
g1
(g14
g3
NtRp523
(dp524
S'h'
I2
sg17
I0
sg18
I1
sg19
g1
(g20
g3
NtRp525
(dp526
g23
I4
sg24
I3
sbsS'w'
I0
sbg1
(g2
g3
NtRp527
(dp528
g6
g505
sg7
I-100
sg8
L3483L
sg9
g10
(g11
tRp529
sg19
g44
sg46
g47
(g48
(I0
tS'b'
tRp530
(I1
(L4L
L3L
tg51
I00
S'\x01\x01\x00\x01\x01\x00\x00\x01\x01\x00\x01\x01'
tbsg52
I-100
sbsg1
(g14
g3
NtRp531
(dp532
S'h'
I2
sg17
I0
sg18
I1
sg19
g1
(g20
g3
NtRp533
(dp534
g23
I4
sg24
I3
sbsS'w'
I1
sbg1
(g2
g3
NtRp535
(dp536
g6
g505
sg7
Finf
sg8
L1755L
sg9
g10
(g11
tRp537
I0
(dp538
g1
(g14
g3
NtRp539
(dp540
S'h'
I0
sg17
I0
sg18
I0
sg19
g80
sS'w'
I0
sbg1
(g2
g3
NtRp541
(dp542
g6
g535
sg7
Finf
sg8
L4095L
sg9
g10
(g11
tRp543
sg19
g44
sg46
g47
(g48
(I0
tS'b'
tRp544
(I1
(L4L
L3L
tg51
I00
S'\x01\x01\x01\x01\x01\x01\x01\x01\x01\x01\x01\x01'
tbsg52
Finf
sbsssg19
g44
sg46
g47
(g48
(I0
tS'b'
tRp545
(I1
(L4L
L3L
tg51
I00
S'\x00\x01\x01\x00\x01\x01\x00\x01\x01\x00\x01\x01'
tbsg52
I62
sbssI2
(dp546
g1
(g14
g3
NtRp547
(dp548
S'h'
I2
sg17
I1
sg18
I2
sg19
g1
(g20
g3
NtRp549
(dp550
g23
I4
sg24
I3
sbsS'w'
I0
sbg1
(g2
g3
NtRp551
(dp552
g6
g505
sg7
I-101
sg8
L1499L
sg9
g10
(g11
tRp553
sg19
g44
sg46
g47
(g48
(I0
tS'b'
tRp554
(I1
(L4L
L3L
tg51
I00
S'\x00\x01\x00\x01\x01\x01\x00\x01\x01\x00\x01\x01'
tbsg52
I-101
sbsg1
(g14
g3
NtRp555
(dp556
S'h'
I2
sg17
I3
sg18
I2
sg19
g1
(g20
g3
NtRp557
(dp558
g23
I4
sg24
I3
sbsS'w'
I0
sbg1
(g2
g3
NtRp559
(dp560
g6
g505
sg7
I-21
sg8
L3739L
sg9
g10
(g11
tRp561
sg19
g44
sg46
g47
(g48
(I0
tS'b'
tRp562
(I1
(L4L
L3L
tg51
I00
S'\x01\x01\x01\x00\x01\x00\x00\x01\x01\x00\x01\x01'
tbsg52
I-21
sbsg1
(g14
g3
NtRp563
(dp564
S'h'
I1
sg17
I0
sg18
I2
sg19
g1
(g20
g3
NtRp565
(dp566
g23
I4
sg24
I3
sbsS'w'
I0
sbg1
(g2
g3
NtRp567
(dp568
g6
g505
sg7
I-171
sg8
L2491L
sg9
g10
(g11
tRp569
sg19
g44
sg46
g47
(g48
(I0
tS'b'
tRp570
(I1
(L4L
L3L
tg51
I00
S'\x01\x00\x00\x01\x01\x00\x01\x01\x01\x00\x01\x01'
tbsg52
I-171
sbssI3
(dp571
g1
(g14
g3
NtRp572
(dp573
S'h'
I0
sg17
I0
sg18
I3
sg19
g1
(g20
g3
NtRp574
(dp575
g23
I4
sg24
I3
sbsS'w'
I0
sbg1
(g2
g3
NtRp576
(dp577
g6
g505
sg7
Finf
sg8
L447L
sg9
g10
(g11
tRp578
I3
(dp579
g1
(g14
g3
NtRp580
(dp581
S'h'
I2
sg17
I3
sg18
I3
sg19
g1
(g20
g3
NtRp582
(dp583
g23
I4
sg24
I3
sbsS'w'
I0
sbg1
(g2
g3
NtRp584
(dp585
g6
g576
sg7
Finf
sg8
L4095L
sg9
g10
(g11
tRp586
sg19
g44
sg46
g47
(g48
(I0
tS'b'
tRp587
(I1
(L4L
L3L
tg51
I00
S'\x01\x01\x01\x01\x01\x01\x01\x01\x01\x01\x01\x01'
tbsg52
Finf
sbsssg19
g44
sg46
g47
(g48
(I0
tS'b'
tRp588
(I1
(L4L
L3L
tg51
I00
S'\x00\x00\x00\x01\x01\x00\x01\x01\x01\x01\x01\x01'
tbsg52
I-250
sbsg1
(g14
g3
NtRp589
(dp590
S'h'
I2
sg17
I1
sg18
I3
sg19
g1
(g20
g3
NtRp591
(dp592
g23
I4
sg24
I3
sbsS'w'
I0
sbg1
(g2
g3
NtRp593
(dp594
g6
g505
sg7
I-91
sg8
L2523L
sg9
g10
(g11
tRp595
sg19
g44
sg46
g47
(g48
(I0
tS'b'
tRp596
(I1
(L4L
L3L
tg51
I00
S'\x01\x00\x00\x01\x01\x01\x00\x01\x01\x00\x01\x01'
tbsg52
I-91
sbsg1
(g14
g3
NtRp597
(dp598
S'h'
I2
sg17
I3
sg18
I3
sg19
g1
(g20
g3
NtRp599
(dp600
g23
I4
sg24
I3
sbsS'w'
I0
sbg1
(g2
g3
NtRp601
(dp602
g6
g505
sg7
I-11
sg8
L3675L
sg9
g10
(g11
tRp603
sg19
g44
sg46
g47
(g48
(I0
tS'b'
tRp604
(I1
(L4L
L3L
tg51
I00
S'\x01\x01\x01\x00\x00\x01\x00\x01\x01\x00\x01\x01'
tbsg52
I-11
sbssI4
(dp605
g1
(g14
g3
NtRp606
(dp607
S'h'
I2
sg17
I3
sg18
I4
sg19
g1
(g20
g3
NtRp608
(dp609
g23
I4
sg24
I3
sbsS'w'
I0
sbg1
(g2
g3
NtRp610
(dp611
g6
g505
sg7
I-91
sg8
L987L
sg9
g10
(g11
tRp612
sg19
g44
sg46
g47
(g48
(I0
tS'b'
tRp613
(I1
(L4L
L3L
tg51
I00
S'\x00\x00\x01\x01\x01\x01\x00\x01\x01\x00\x01\x01'
tbsg52
I-91
sbsg1
(g14
g3
NtRp614
(dp615
S'h'
I1
sg17
I1
sg18
I4
sg19
g1
(g20
g3
NtRp616
(dp617
g23
I4
sg24
I3
sbsS'w'
I0
sbg1
(g2
g3
NtRp618
(dp619
g6
g505
sg7
I-170
sg8
L507L
sg9
g10
(g11
tRp620
sg19
g44
sg46
g47
(g48
(I0
tS'b'
tRp621
(I1
(L4L
L3L
tg51
I00
S'\x00\x00\x00\x01\x01\x01\x01\x01\x01\x00\x01\x01'
tbsg52
I-170
sbssI5
(dp622
g1
(g14
g3
NtRp623
(dp624
S'h'
I2
sg17
I1
sg18
I5
sg19
g1
(g20
g3
NtRp625
(dp626
g23
I4
sg24
I3
sbsS'w'
I0
sbg1
(g2
g3
NtRp627
(dp628
g6
g505
sg7
I-102
sg8
L1947L
sg9
g10
(g11
tRp629
sg19
g44
sg46
g47
(g48
(I0
tS'b'
tRp630
(I1
(L4L
L3L
tg51
I00
S'\x00\x01\x01\x01\x01\x00\x00\x01\x01\x00\x01\x01'
tbsg52
I-102
sbssI6
(dp631
g1
(g14
g3
NtRp632
(dp633
S'h'
I2
sg17
I1
sg18
I6
sg19
g1
(g20
g3
NtRp634
(dp635
g23
I4
sg24
I3
sbsS'w'
I0
sbg1
(g2
g3
NtRp636
(dp637
g6
g505
sg7
I-20
sg8
L3291L
sg9
g10
(g11
tRp638
sg19
g44
sg46
g47
(g48
(I0
tS'b'
tRp639
(I1
(L4L
L3L
tg51
I00
S'\x01\x01\x00\x00\x01\x01\x00\x01\x01\x00\x01\x01'
tbsg52
I-20
sbsg1
(g14
g3
NtRp640
(dp641
S'h'
I1
sg17
I0
sg18
I6
sg19
g1
(g20
g3
NtRp642
(dp643
g23
I4
sg24
I3
sbsS'w'
I0
sbg1
(g2
g3
NtRp644
(dp645
g6
g505
sg7
I-181
sg8
L1467L
sg9
g10
(g11
tRp646
sg19
g44
sg46
g47
(g48
(I0
tS'b'
tRp647
(I1
(L4L
L3L
tg51
I00
S'\x00\x01\x00\x01\x01\x00\x01\x01\x01\x00\x01\x01'
tbsg52
I-181
sbsssg19
g44
sg46
g47
(g48
(I0
tS'b'
tRp648
(I1
(L4L
L3L
tg51
I00
S'\x00\x00\x00\x00\x00\x00\x00\x01\x01\x00\x01\x01'
tbsg52
I-292
sbssI2
(dp649
g1
(g14
g3
NtRp650
(dp651
S'h'
I0
sg17
I0
sg18
I2
sg19
g1
(g20
g3
NtRp652
(dp653
g23
I4
sg24
I3
sbsS'w'
I0
sbg1
(g2
g3
NtRp654
(dp655
g6
g4
sg7
I71
sg8
L308L
sg9
g10
(g11
tRp656
I0
(dp657
g1
(g14
g3
NtRp658
(dp659
S'h'
I0
sg17
I0
sg18
I0
sg19
g267
sS'w'
I2
sbg1
(g2
g3
NtRp660
(dp661
g6
g654
sg7
I-155
sg8
L893L
sg9
g10
(g11
tRp662
sg19
g44
sg46
g47
(g48
(I0
tS'b'
tRp663
(I1
(L4L
L3L
tg51
I00
S'\x00\x00\x01\x01\x00\x01\x01\x01\x01\x01\x00\x01'
tbsg52
I-155
sbssI1
(dp664
g1
(g14
g3
NtRp665
(dp666
S'h'
I2
sg17
I0
sg18
I1
sg19
g1
(g20
g3
NtRp667
(dp668
g23
I4
sg24
I3
sbsS'w'
I1
sbg1
(g2
g3
NtRp669
(dp670
g6
g654
sg7
I-10
sg8
L2036L
sg9
g10
(g11
tRp671
sg19
g44
sg46
g47
(g48
(I0
tS'b'
tRp672
(I1
(L4L
L3L
tg51
I00
S'\x00\x01\x01\x01\x01\x01\x01\x01\x00\x01\x00\x00'
tbsg52
I-10
sbssI2
(dp673
g1
(g14
g3
NtRp674
(dp675
S'h'
I2
sg17
I3
sg18
I2
sg19
g1
(g20
g3
NtRp676
(dp677
g23
I4
sg24
I3
sbsS'w'
I0
sbg1
(g2
g3
NtRp678
(dp679
g6
g654
sg7
I71
sg8
L4020L
sg9
g10
(g11
tRp680
sg19
g44
sg46
g47
(g48
(I0
tS'b'
tRp681
(I1
(L4L
L3L
tg51
I00
S'\x01\x01\x01\x01\x01\x00\x01\x01\x00\x01\x00\x00'
tbsg52
I71
sbsg1
(g14
g3
NtRp682
(dp683
S'h'
I1
sg17
I2
sg18
I2
sg19
g1
(g20
g3
NtRp684
(dp685
g23
I4
sg24
I3
sbsS'w'
I1
sbg1
(g2
g3
NtRp686
(dp687
g6
g654
sg7
I-81
sg8
L1020L
sg9
g10
(g11
tRp688
sg19
g44
sg46
g47
(g48
(I0
tS'b'
tRp689
(I1
(L4L
L3L
tg51
I00
S'\x00\x00\x01\x01\x01\x01\x01\x01\x01\x01\x00\x00'
tbsg52
I-81
sbssI3
(dp690
g1
(g14
g3
NtRp691
(dp692
S'h'
I2
sg17
I3
sg18
I3
sg19
g1
(g20
g3
NtRp693
(dp694
g23
I4
sg24
I3
sbsS'w'
I0
sbg1
(g2
g3
NtRp695
(dp696
g6
g654
sg7
I-3
sg8
L3956L
sg9
g10
(g11
tRp697
sg19
g44
sg46
g47
(g48
(I0
tS'b'
tRp698
(I1
(L4L
L3L
tg51
I00
S'\x01\x01\x01\x01\x00\x01\x01\x01\x00\x01\x00\x00'
tbsg52
I-3
sbssI4
(dp699
g1
(g14
g3
NtRp700
(dp701
S'h'
I0
sg17
I0
sg18
I4
sg19
g1
(g20
g3
NtRp702
(dp703
g23
I4
sg24
I3
sbsS'w'
I1
sbg1
(g2
g3
NtRp704
(dp705
g6
g654
sg7
I-162
sg8
L509L
sg9
g10
(g11
tRp706
sg19
g44
sg46
g47
(g48
(I0
tS'b'
tRp707
(I1
(L4L
L3L
tg51
I00
S'\x00\x00\x00\x01\x01\x01\x01\x01\x01\x01\x00\x01'
tbsg52
I-162
sbssI5
(dp708
g1
(g14
g3
NtRp709
(dp710
S'h'
I1
sg17
I0
sg18
I5
sg19
g1
(g20
g3
NtRp711
(dp712
g23
I4
sg24
I3
sbsS'w'
I1
sbg1
(g2
g3
NtRp713
(dp714
g6
g654
sg7
I-91
sg8
L1532L
sg9
g10
(g11
tRp715
sg19
g44
sg46
g47
(g48
(I0
tS'b'
tRp716
(I1
(L4L
L3L
tg51
I00
S'\x00\x01\x00\x01\x01\x01\x01\x01\x01\x01\x00\x00'
tbsg52
I-91
sbssI6
(dp717
g1
(g14
g3
NtRp718
(dp719
S'h'
I2
sg17
I1
sg18
I6
sg19
g1
(g20
g3
NtRp720
(dp721
g23
I4
sg24
I3
sbsS'w'
I0
sbg1
(g2
g3
NtRp722
(dp723
g6
g654
sg7
I-10
sg8
L3572L
sg9
g10
(g11
tRp724
sg19
g44
sg46
g47
(g48
(I0
tS'b'
tRp725
(I1
(L4L
L3L
tg51
I00
S'\x01\x01\x00\x01\x01\x01\x01\x01\x00\x01\x00\x00'
tbsg52
I-10
sbsssg19
g44
sg46
g47
(g48
(I0
tS'b'
tRp726
(I1
(L4L
L3L
tg51
I00
S'\x00\x00\x00\x01\x00\x00\x01\x01\x00\x01\x00\x00'
tbsg52
I-204
sbsg1
(g14
g3
NtRp727
(dp728
S'h'
I0
sg17
I0
sg18
I2
sg19
g1
(g20
g3
NtRp729
(dp730
g23
I4
sg24
I3
sbsS'w'
I1
sbg1
(g2
g3
NtRp731
(dp732
g6
g4
sg7
I61
sg8
L154L
sg9
g10
(g11
tRp733
I0
(dp734
g1
(g14
g3
NtRp735
(dp736
S'h'
I0
sg17
I0
sg18
I0
sg19
g90
sS'w'
I0
sbg1
(g2
g3
NtRp737
(dp738
g6
g731
sg7
I-171
sg8
L2494L
sg9
g10
(g11
tRp739
sg19
g44
sg46
g47
(g48
(I0
tS'b'
tRp740
(I1
(L4L
L3L
tg51
I00
S'\x01\x00\x00\x01\x01\x00\x01\x01\x01\x01\x01\x00'
tbsg52
I-171
sbssI3
(dp741
g1
(g14
g3
NtRp742
(dp743
S'h'
I2
sg17
I3
sg18
I3
sg19
g1
(g20
g3
NtRp744
(dp745
g23
I4
sg24
I3
sbsS'w'
I0
sbg1
(g2
g3
NtRp746
(dp747
g6
g731
sg7
I61
sg8
L3802L
sg9
g10
(g11
tRp748
sg19
g44
sg46
g47
(g48
(I0
tS'b'
tRp749
(I1
(L4L
L3L
tg51
I00
S'\x01\x01\x01\x00\x01\x01\x00\x01\x01\x00\x01\x00'
tbsg52
I61
sbsg1
(g14
g3
NtRp750
(dp751
S'h'
I1
sg17
I0
sg18
I3
sg19
g1
(g20
g3
NtRp752
(dp753
g23
I4
sg24
I3
sbsS'w'
I0
sbg1
(g2
g3
NtRp754
(dp755
g6
g731
sg7
I-100
sg8
L3514L
sg9
g10
(g11
tRp756
sg19
g44
sg46
g47
(g48
(I0
tS'b'
tRp757
(I1
(L4L
L3L
tg51
I00
S'\x01\x01\x00\x01\x01\x00\x01\x01\x01\x00\x01\x00'
tbsg52
I-100
sbssI4
(dp758
g1
(g14
g3
NtRp759
(dp760
S'h'
I2
sg17
I1
sg18
I4
sg19
g1
(g20
g3
NtRp761
(dp762
g23
I4
sg24
I3
sbsS'w'
I0
sbg1
(g2
g3
NtRp763
(dp764
g6
g731
sg7
I-21
sg8
L3994L
sg9
g10
(g11
tRp765
sg19
g44
sg46
g47
(g48
(I0
tS'b'
tRp766
(I1
(L4L
L3L
tg51
I00
S'\x01\x01\x01\x01\x01\x00\x00\x01\x01\x00\x01\x00'
tbsg52
I-21
sbsssg19
g44
sg46
g47
(g48
(I0
tS'b'
tRp767
(I1
(L4L
L3L
tg51
I00
S'\x00\x00\x00\x00\x01\x00\x00\x01\x01\x00\x01\x00'
tbsg52
I-224
sbsg1
(g14
g3
NtRp768
(dp769
S'h'
I0
sg17
I1
sg18
I2
sg19
g1
(g20
g3
NtRp770
(dp771
g23
I4
sg24
I3
sbsS'w'
I0
sbg1
(g2
g3
NtRp772
(dp773
g6
g4
sg7
Finf
sg8
L23L
sg9
g10
(g11
tRp774
I1
(dp775
g1
(g14
g3
NtRp776
(dp777
S'h'
I2
sg17
I0
sg18
I1
sg19
g1
(g20
g3
NtRp778
(dp779
g23
I4
sg24
I3
sbsS'w'
I0
sbg1
(g2
g3
NtRp780
(dp781
g6
g772
sg7
I-262
sg8
L3479L
sg9
g10
(g11
tRp782
sg19
g44
sg46
g47
(g48
(I0
tS'b'
tRp783
(I1
(L4L
L3L
tg51
I00
S'\x01\x01\x00\x01\x01\x00\x00\x01\x00\x01\x01\x01'
tbsg52
I-262
sbsg1
(g14
g3
NtRp784
(dp785
S'h'
I2
sg17
I0
sg18
I1
sg19
g1
(g20
g3
NtRp786
(dp787
g23
I4
sg24
I3
sbsS'w'
I1
sbg1
(g2
g3
NtRp788
(dp789
g6
g772
sg7
I-262
sg8
L1751L
sg9
g10
(g11
tRp790
sg19
g44
sg46
g47
(g48
(I0
tS'b'
tRp791
(I1
(L4L
L3L
tg51
I00
S'\x00\x01\x01\x00\x01\x01\x00\x01\x00\x01\x01\x01'
tbsg52
I-262
sbssI2
(dp792
g1
(g14
g3
NtRp793
(dp794
S'h'
I2
sg17
I1
sg18
I2
sg19
g1
(g20
g3
NtRp795
(dp796
g23
I4
sg24
I3
sbsS'w'
I0
sbg1
(g2
g3
NtRp797
(dp798
g6
g772
sg7
I-265
sg8
L1495L
sg9
g10
(g11
tRp799
sg19
g44
sg46
g47
(g48
(I0
tS'b'
tRp800
(I1
(L4L
L3L
tg51
I00
S'\x00\x01\x00\x01\x01\x01\x00\x01\x00\x01\x01\x01'
tbsg52
I-265
sbsg1
(g14
g3
NtRp801
(dp802
S'h'
I2
sg17
I3
sg18
I2
sg19
g1
(g20
g3
NtRp803
(dp804
g23
I4
sg24
I3
sbsS'w'
I0
sbg1
(g2
g3
NtRp805
(dp806
g6
g772
sg7
I-263
sg8
L3735L
sg9
g10
(g11
tRp807
sg19
g44
sg46
g47
(g48
(I0
tS'b'
tRp808
(I1
(L4L
L3L
tg51
I00
S'\x01\x01\x01\x00\x01\x00\x00\x01\x00\x01\x01\x01'
tbsg52
I-263
sbsg1
(g14
g3
NtRp809
(dp810
S'h'
I1
sg17
I0
sg18
I2
sg19
g1
(g20
g3
NtRp811
(dp812
g23
I4
sg24
I3
sbsS'w'
I0
sbg1
(g2
g3
NtRp813
(dp814
g6
g772
sg7
Finf
sg8
L2487L
sg9
g10
(g11
tRp815
I4
(dp816
g1
(g14
g3
NtRp817
(dp818
S'h'
I1
sg17
I0
sg18
I4
sg19
g1
(g20
g3
NtRp819
(dp820
g23
I4
sg24
I3
sbsS'w'
I1
sbg1
(g2
g3
NtRp821
(dp822
g6
g813
sg7
Finf
sg8
L4095L
sg9
g10
(g11
tRp823
sg19
g44
sg46
g47
(g48
(I0
tS'b'
tRp824
(I1
(L4L
L3L
tg51
I00
S'\x01\x01\x01\x01\x01\x01\x01\x01\x01\x01\x01\x01'
tbsg52
Finf
sbsssg19
g44
sg46
g47
(g48
(I0
tS'b'
tRp825
(I1
(L4L
L3L
tg51
I00
S'\x01\x00\x00\x01\x01\x00\x01\x01\x00\x01\x01\x01'
tbsg52
I-251
sbsg1
(g14
g3
NtRp826
(dp827
S'h'
I1
sg17
I2
sg18
I2
sg19
g1
(g20
g3
NtRp828
(dp829
g23
I4
sg24
I3
sbsS'w'
I1
sbg1
(g2
g3
NtRp830
(dp831
g6
g772
sg7
Finf
sg8
L735L
sg9
g10
(g11
tRp832
I3
(dp833
g1
(g14
g3
NtRp834
(dp835
S'h'
I1
sg17
I0
sg18
I3
sg19
g1
(g20
g3
NtRp836
(dp837
g23
I4
sg24
I3
sbsS'w'
I0
sbg1
(g2
g3
NtRp838
(dp839
g6
g830
sg7
Finf
sg8
L4095L
sg9
g10
(g11
tRp840
sg19
g44
sg46
g47
(g48
(I0
tS'b'
tRp841
(I1
(L4L
L3L
tg51
I00
S'\x01\x01\x01\x01\x01\x01\x01\x01\x01\x01\x01\x01'
tbsg52
Finf
sbsssg19
g44
sg46
g47
(g48
(I0
tS'b'
tRp842
(I1
(L4L
L3L
tg51
I00
S'\x00\x00\x01\x00\x01\x01\x00\x01\x01\x01\x01\x01'
tbsg52
I-251
sbssI3
(dp843
g1
(g14
g3
NtRp844
(dp845
S'h'
I2
sg17
I1
sg18
I3
sg19
g1
(g20
g3
NtRp846
(dp847
g23
I4
sg24
I3
sbsS'w'
I0
sbg1
(g2
g3
NtRp848
(dp849
g6
g772
sg7
I-255
sg8
L2519L
sg9
g10
(g11
tRp850
sg19
g44
sg46
g47
(g48
(I0
tS'b'
tRp851
(I1
(L4L
L3L
tg51
I00
S'\x01\x00\x00\x01\x01\x01\x00\x01\x00\x01\x01\x01'
tbsg52
I-255
sbsg1
(g14
g3
NtRp852
(dp853
S'h'
I1
sg17
I0
sg18
I3
sg19
g1
(g20
g3
NtRp854
(dp855
g23
I4
sg24
I3
sbsS'w'
I0
sbg1
(g2
g3
NtRp856
(dp857
g6
g772
sg7
I-252
sg8
L3383L
sg9
g10
(g11
tRp858
sg19
g44
sg46
g47
(g48
(I0
tS'b'
tRp859
(I1
(L4L
L3L
tg51
I00
S'\x01\x01\x00\x01\x00\x00\x01\x01\x00\x01\x01\x01'
tbsg52
I-252
sbsg1
(g14
g3
NtRp860
(dp861
S'h'
I1
sg17
I3
sg18
I3
sg19
g1
(g20
g3
NtRp862
(dp863
g23
I4
sg24
I3
sbsS'w'
I0
sbg1
(g2
g3
NtRp864
(dp865
g6
g772
sg7
I-252
sg8
L479L
sg9
g10
(g11
tRp866
sg19
g44
sg46
g47
(g48
(I0
tS'b'
tRp867
(I1
(L4L
L3L
tg51
I00
S'\x00\x00\x00\x01\x01\x01\x00\x01\x01\x01\x01\x01'
tbsg52
I-252
sbssI4
(dp868
g1
(g14
g3
NtRp869
(dp870
S'h'
I2
sg17
I3
sg18
I4
sg19
g1
(g20
g3
NtRp871
(dp872
g23
I4
sg24
I3
sbsS'w'
I0
sbg1
(g2
g3
NtRp873
(dp874
g6
g772
sg7
I-255
sg8
L983L
sg9
g10
(g11
tRp875
sg19
g44
sg46
g47
(g48
(I0
tS'b'
tRp876
(I1
(L4L
L3L
tg51
I00
S'\x00\x00\x01\x01\x01\x01\x00\x01\x00\x01\x01\x01'
tbsg52
I-255
sbsg1
(g14
g3
NtRp877
(dp878
S'h'
I1
sg17
I0
sg18
I4
sg19
g1
(g20
g3
NtRp879
(dp880
g23
I4
sg24
I3
sbsS'w'
I1
sbg1
(g2
g3
NtRp881
(dp882
g6
g772
sg7
I-252
sg8
L1631L
sg9
g10
(g11
tRp883
sg19
g44
sg46
g47
(g48
(I0
tS'b'
tRp884
(I1
(L4L
L3L
tg51
I00
S'\x00\x01\x01\x00\x00\x01\x00\x01\x01\x01\x01\x01'
tbsg52
I-252
sbsg1
(g14
g3
NtRp885
(dp886
S'h'
I1
sg17
I1
sg18
I4
sg19
g1
(g20
g3
NtRp887
(dp888
g23
I4
sg24
I3
sbsS'w'
I0
sbg1
(g2
g3
NtRp889
(dp890
g6
g772
sg7
I-252
sg8
L503L
sg9
g10
(g11
tRp891
sg19
g44
sg46
g47
(g48
(I0
tS'b'
tRp892
(I1
(L4L
L3L
tg51
I00
S'\x00\x00\x00\x01\x01\x01\x01\x01\x00\x01\x01\x01'
tbsg52
I-252
sbssI5
(dp893
g1
(g14
g3
NtRp894
(dp895
S'h'
I2
sg17
I1
sg18
I5
sg19
g1
(g20
g3
NtRp896
(dp897
g23
I4
sg24
I3
sbsS'w'
I0
sbg1
(g2
g3
NtRp898
(dp899
g6
g772
sg7
I-264
sg8
L1943L
sg9
g10
(g11
tRp900
sg19
g44
sg46
g47
(g48
(I0
tS'b'
tRp901
(I1
(L4L
L3L
tg51
I00
S'\x00\x01\x01\x01\x01\x00\x00\x01\x00\x01\x01\x01'
tbsg52
I-264
sbsg1
(g14
g3
NtRp902
(dp903
S'h'
I1
sg17
I0
sg18
I5
sg19
g1
(g20
g3
NtRp904
(dp905
g23
I4
sg24
I3
sbsS'w'
I1
sbg1
(g2
g3
NtRp906
(dp907
g6
g772
sg7
I-261
sg8
L1247L
sg9
g10
(g11
tRp908
sg19
g44
sg46
g47
(g48
(I0
tS'b'
tRp909
(I1
(L4L
L3L
tg51
I00
S'\x00\x01\x00\x00\x01\x01\x00\x01\x01\x01\x01\x01'
tbsg52
I-261
sbssI6
(dp910
g1
(g14
g3
NtRp911
(dp912
S'h'
I2
sg17
I1
sg18
I6
sg19
g1
(g20
g3
NtRp913
(dp914
g23
I4
sg24
I3
sbsS'w'
I0
sbg1
(g2
g3
NtRp915
(dp916
g6
g772
sg7
I-264
sg8
L3287L
sg9
g10
(g11
tRp917
sg19
g44
sg46
g47
(g48
(I0
tS'b'
tRp918
(I1
(L4L
L3L
tg51
I00
S'\x01\x01\x00\x00\x01\x01\x00\x01\x00\x01\x01\x01'
tbsg52
I-264
sbsg1
(g14
g3
NtRp919
(dp920
S'h'
I1
sg17
I0
sg18
I6
sg19
g1
(g20
g3
NtRp921
(dp922
g23
I4
sg24
I3
sbsS'w'
I0
sbg1
(g2
g3
NtRp923
(dp924
g6
g772
sg7
I-261
sg8
L1463L
sg9
g10
(g11
tRp925
sg19
g44
sg46
g47
(g48
(I0
tS'b'
tRp926
(I1
(L4L
L3L
tg51
I00
S'\x00\x01\x00\x01\x01\x00\x01\x01\x00\x01\x01\x01'
tbsg52
I-261
sbsssg19
g44
sg46
g47
(g48
(I0
tS'b'
tRp927
(I1
(L4L
L3L
tg51
I00
S'\x00\x00\x00\x00\x00\x00\x00\x01\x00\x01\x01\x01'
tbsg52
I-614
sbsg1
(g14
g3
NtRp928
(dp929
S'h'
I0
sg17
I2
sg18
I2
sg19
g1
(g20
g3
NtRp930
(dp931
g23
I4
sg24
I3
sbsS'w'
I0
sbg1
(g2
g3
NtRp932
(dp933
g6
g4
sg7
I61
sg8
L178L
sg9
g10
(g11
tRp934
I0
(dp935
g1
(g14
g3
NtRp936
(dp937
S'h'
I0
sg17
I0
sg18
I0
sg19
g275
sS'w'
I2
sbg1
(g2
g3
NtRp938
(dp939
g6
g932
sg7
I-171
sg8
L763L
sg9
g10
(g11
tRp940
sg19
g44
sg46
g47
(g48
(I0
tS'b'
tRp941
(I1
(L4L
L3L
tg51
I00
S'\x00\x00\x01\x00\x01\x01\x01\x01\x01\x00\x01\x01'
tbsg52
I-171
sbssI3
(dp942
g1
(g14
g3
NtRp943
(dp944
S'h'
I2
sg17
I3
sg18
I3
sg19
g1
(g20
g3
NtRp945
(dp946
g23
I4
sg24
I3
sbsS'w'
I0
sbg1
(g2
g3
NtRp947
(dp948
g6
g932
sg7
I-21
sg8
L3826L
sg9
g10
(g11
tRp949
sg19
g44
sg46
g47
(g48
(I0
tS'b'
tRp950
(I1
(L4L
L3L
tg51
I00
S'\x01\x01\x01\x00\x01\x01\x01\x01\x00\x00\x01\x00'
tbsg52
I-21
sbssI4
(dp951
g1
(g14
g3
NtRp952
(dp953
S'h'
I2
sg17
I1
sg18
I4
sg19
g1
(g20
g3
NtRp954
(dp955
g23
I4
sg24
I3
sbsS'w'
I0
sbg1
(g2
g3
NtRp956
(dp957
g6
g932
sg7
I61
sg8
L4018L
sg9
g10
(g11
tRp958
sg19
g44
sg46
g47
(g48
(I0
tS'b'
tRp959
(I1
(L4L
L3L
tg51
I00
S'\x01\x01\x01\x01\x01\x00\x01\x01\x00\x00\x01\x00'
tbsg52
I61
sbsg1
(g14
g3
NtRp960
(dp961
S'h'
I1
sg17
I0
sg18
I4
sg19
g1
(g20
g3
NtRp962
(dp963
g23
I4
sg24
I3
sbsS'w'
I1
sbg1
(g2
g3
NtRp964
(dp965
g6
g932
sg7
I-100
sg8
L1786L
sg9
g10
(g11
tRp966
sg19
g44
sg46
g47
(g48
(I0
tS'b'
tRp967
(I1
(L4L
L3L
tg51
I00
S'\x00\x01\x01\x00\x01\x01\x01\x01\x01\x00\x01\x00'
tbsg52
I-100
sbsssg19
g44
sg46
g47
(g48
(I0
tS'b'
tRp968
(I1
(L4L
L3L
tg51
I00
S'\x00\x00\x00\x00\x01\x00\x01\x01\x00\x00\x01\x00'
tbsg52
I-224
sbsg1
(g14
g3
NtRp969
(dp970
S'h'
I0
sg17
I2
sg18
I2
sg19
g1
(g20
g3
NtRp971
(dp972
g23
I4
sg24
I3
sbsS'w'
I1
sbg1
(g2
g3
NtRp973
(dp974
g6
g4
sg7
I71
sg8
L89L
sg9
g10
(g11
tRp975
I0
(dp976
g1
(g14
g3
NtRp977
(dp978
S'h'
I0
sg17
I0
sg18
I0
sg19
g98
sS'w'
I0
sbg1
(g2
g3
NtRp979
(dp980
g6
g973
sg7
I-155
sg8
L2429L
sg9
g10
(g11
tRp981
sg19
g44
sg46
g47
(g48
(I0
tS'b'
tRp982
(I1
(L4L
L3L
tg51
I00
S'\x01\x00\x00\x01\x00\x01\x01\x01\x01\x01\x00\x01'
tbsg52
I-155
sbssI1
(dp983
g1
(g14
g3
NtRp984
(dp985
S'h'
I2
sg17
I0
sg18
I1
sg19
g1
(g20
g3
NtRp986
(dp987
g23
I4
sg24
I3
sbsS'w'
I0
sbg1
(g2
g3
NtRp988
(dp989
g6
g973
sg7
I-10
sg8
L3545L
sg9
g10
(g11
tRp990
sg19
g44
sg46
g47
(g48
(I0
tS'b'
tRp991
(I1
(L4L
L3L
tg51
I00
S'\x01\x01\x00\x01\x01\x01\x00\x01\x01\x00\x00\x01'
tbsg52
I-10
sbssI2
(dp992
g1
(g14
g3
NtRp993
(dp994
S'h'
I2
sg17
I3
sg18
I2
sg19
g1
(g20
g3
NtRp995
(dp996
g23
I4
sg24
I3
sbsS'w'
I0
sbg1
(g2
g3
NtRp997
(dp998
g6
g973
sg7
I71
sg8
L3801L
sg9
g10
(g11
tRp999
sg19
g44
sg46
g47
(g48
(I0
tS'b'
tRp1000
(I1
(L4L
L3L
tg51
I00
S'\x01\x01\x01\x00\x01\x01\x00\x01\x01\x00\x00\x01'
tbsg52
I71
sbsg1
(g14
g3
NtRp1001
(dp1002
S'h'
I1
sg17
I0
sg18
I2
sg19
g1
(g20
g3
NtRp1003
(dp1004
g23
I4
sg24
I3
sbsS'w'
I0
sbg1
(g2
g3
NtRp1005
(dp1006
g6
g973
sg7
I-81
sg8
L2553L
sg9
g10
(g11
tRp1007
sg19
g44
sg46
g47
(g48
(I0
tS'b'
tRp1008
(I1
(L4L
L3L
tg51
I00
S'\x01\x00\x00\x01\x01\x01\x01\x01\x01\x00\x00\x01'
tbsg52
I-81
sbssI3
(dp1009
g1
(g14
g3
NtRp1010
(dp1011
S'h'
I0
sg17
I0
sg18
I3
sg19
g1
(g20
g3
NtRp1012
(dp1013
g23
I4
sg24
I3
sbsS'w'
I0
sbg1
(g2
g3
NtRp1014
(dp1015
g6
g973
sg7
I-162
sg8
L509L
sg9
g10
(g11
tRp1016
sg19
g44
sg46
g47
(g48
(I0
tS'b'
tRp1017
(I1
(L4L
L3L
tg51
I00
S'\x00\x00\x00\x01\x01\x01\x01\x01\x01\x01\x00\x01'
tbsg52
I-162
sbssI4
(dp1018
g1
(g14
g3
NtRp1019
(dp1020
S'h'
I2
sg17
I1
sg18
I4
sg19
g1
(g20
g3
NtRp1021
(dp1022
g23
I4
sg24
I3
sbsS'w'
I0
sbg1
(g2
g3
NtRp1023
(dp1024
g6
g973
sg7
I-3
sg8
L3929L
sg9
g10
(g11
tRp1025
sg19
g44
sg46
g47
(g48
(I0
tS'b'
tRp1026
(I1
(L4L
L3L
tg51
I00
S'\x01\x01\x01\x01\x00\x01\x00\x01\x01\x00\x00\x01'
tbsg52
I-3
sbssI5
(dp1027
g1
(g14
g3
NtRp1028
(dp1029
S'h'
I2
sg17
I1
sg18
I5
sg19
g1
(g20
g3
NtRp1030
(dp1031
g23
I4
sg24
I3
sbsS'w'
I0
sbg1
(g2
g3
NtRp1032
(dp1033
g6
g973
sg7
I-10
sg8
L2009L
sg9
g10
(g11
tRp1034
sg19
g44
sg46
g47
(g48
(I0
tS'b'
tRp1035
(I1
(L4L
L3L
tg51
I00
S'\x00\x01\x01\x01\x01\x01\x00\x01\x01\x00\x00\x01'
tbsg52
I-10
sbssI6
(dp1036
g1
(g14
g3
NtRp1037
(dp1038
S'h'
I1
sg17
I0
sg18
I6
sg19
g1
(g20
g3
NtRp1039
(dp1040
g23
I4
sg24
I3
sbsS'w'
I0
sbg1
(g2
g3
NtRp1041
(dp1042
g6
g973
sg7
I-91
sg8
L1529L
sg9
g10
(g11
tRp1043
sg19
g44
sg46
g47
(g48
(I0
tS'b'
tRp1044
(I1
(L4L
L3L
tg51
I00
S'\x00\x01\x00\x01\x01\x01\x01\x01\x01\x00\x00\x01'
tbsg52
I-91
sbsssg19
g44
sg46
g47
(g48
(I0
tS'b'
tRp1045
(I1
(L4L
L3L
tg51
I00
S'\x00\x00\x00\x00\x00\x01\x00\x01\x01\x00\x00\x01'
tbsg52
I-204
sbsg1
(g14
g3
NtRp1046
(dp1047
S'h'
I0
sg17
I3
sg18
I2
sg19
g1
(g20
g3
NtRp1048
(dp1049
g23
I4
sg24
I3
sbsS'w'
I0
sbg1
(g2
g3
NtRp1050
(dp1051
g6
g4
sg7
I-91
sg8
L58L
sg9
g10
(g11
tRp1052
I1
(dp1053
g1
(g14
g3
NtRp1054
(dp1055
S'h'
I2
sg17
I0
sg18
I1
sg19
g1
(g20
g3
NtRp1056
(dp1057
g23
I4
sg24
I3
sbsS'w'
I0
sbg1
(g2
g3
NtRp1058
(dp1059
g6
g1050
sg7
I-100
sg8
L3514L
sg9
g10
(g11
tRp1060
sg19
g44
sg46
g47
(g48
(I0
tS'b'
tRp1061
(I1
(L4L
L3L
tg51
I00
S'\x01\x01\x00\x01\x01\x00\x01\x01\x01\x00\x01\x00'
tbsg52
I-100
sbsg1
(g14
g3
NtRp1062
(dp1063
S'h'
I2
sg17
I0
sg18
I1
sg19
g1
(g20
g3
NtRp1064
(dp1065
g23
I4
sg24
I3
sbsS'w'
I1
sbg1
(g2
g3
NtRp1066
(dp1067
g6
g1050
sg7
I-100
sg8
L1786L
sg9
g10
(g11
tRp1068
sg19
g44
sg46
g47
(g48
(I0
tS'b'
tRp1069
(I1
(L4L
L3L
tg51
I00
S'\x00\x01\x01\x00\x01\x01\x01\x01\x01\x00\x01\x00'
tbsg52
I-100
sbssI2
(dp1070
g1
(g14
g3
NtRp1071
(dp1072
S'h'
I2
sg17
I1
sg18
I2
sg19
g1
(g20
g3
NtRp1073
(dp1074
g23
I4
sg24
I3
sbsS'w'
I0
sbg1
(g2
g3
NtRp1075
(dp1076
g6
g1050
sg7
I-101
sg8
L1530L
sg9
g10
(g11
tRp1077
sg19
g44
sg46
g47
(g48
(I0
tS'b'
tRp1078
(I1
(L4L
L3L
tg51
I00
S'\x00\x01\x00\x01\x01\x01\x01\x01\x01\x00\x01\x00'
tbsg52
I-101
sbsg1
(g14
g3
NtRp1079
(dp1080
S'h'
I2
sg17
I3
sg18
I2
sg19
g1
(g20
g3
NtRp1081
(dp1082
g23
I4
sg24
I3
sbsS'w'
I0
sbg1
(g2
g3
NtRp1083
(dp1084
g6
g1050
sg7
I-103
sg8
L3770L
sg9
g10
(g11
tRp1085
sg19
g44
sg46
g47
(g48
(I0
tS'b'
tRp1086
(I1
(L4L
L3L
tg51
I00
S'\x01\x01\x01\x00\x01\x00\x01\x01\x01\x00\x01\x00'
tbsg52
I-103
sbssI3
(dp1087
g1
(g14
g3
NtRp1088
(dp1089
S'h'
I2
sg17
I1
sg18
I3
sg19
g1
(g20
g3
NtRp1090
(dp1091
g23
I4
sg24
I3
sbsS'w'
I0
sbg1
(g2
g3
NtRp1092
(dp1093
g6
g1050
sg7
I-91
sg8
L2554L
sg9
g10
(g11
tRp1094
sg19
g44
sg46
g47
(g48
(I0
tS'b'
tRp1095
(I1
(L4L
L3L
tg51
I00
S'\x01\x00\x00\x01\x01\x01\x01\x01\x01\x00\x01\x00'
tbsg52
I-91
sbsg1
(g14
g3
NtRp1096
(dp1097
S'h'
I2
sg17
I3
sg18
I3
sg19
g1
(g20
g3
NtRp1098
(dp1099
g23
I4
sg24
I3
sbsS'w'
I0
sbg1
(g2
g3
NtRp1100
(dp1101
g6
g1050
sg7
I-93
sg8
L3706L
sg9
g10
(g11
tRp1102
sg19
g44
sg46
g47
(g48
(I0
tS'b'
tRp1103
(I1
(L4L
L3L
tg51
I00
S'\x01\x01\x01\x00\x00\x01\x01\x01\x01\x00\x01\x00'
tbsg52
I-93
sbssI4
(dp1104
g1
(g14
g3
NtRp1105
(dp1106
S'h'
I2
sg17
I1
sg18
I4
sg19
g1
(g20
g3
NtRp1107
(dp1108
g23
I4
sg24
I3
sbsS'w'
I0
sbg1
(g2
g3
NtRp1109
(dp1110
g6
g1050
sg7
I-93
sg8
L3898L
sg9
g10
(g11
tRp1111
sg19
g44
sg46
g47
(g48
(I0
tS'b'
tRp1112
(I1
(L4L
L3L
tg51
I00
S'\x01\x01\x01\x01\x00\x00\x01\x01\x01\x00\x01\x00'
tbsg52
I-93
sbsg1
(g14
g3
NtRp1113
(dp1114
S'h'
I2
sg17
I3
sg18
I4
sg19
g1
(g20
g3
NtRp1115
(dp1116
g23
I4
sg24
I3
sbsS'w'
I0
sbg1
(g2
g3
NtRp1117
(dp1118
g6
g1050
sg7
I-91
sg8
L1018L
sg9
g10
(g11
tRp1119
sg19
g44
sg46
g47
(g48
(I0
tS'b'
tRp1120
(I1
(L4L
L3L
tg51
I00
S'\x00\x00\x01\x01\x01\x01\x01\x01\x01\x00\x01\x00'
tbsg52
I-91
sbssI5
(dp1121
g1
(g14
g3
NtRp1122
(dp1123
S'h'
I2
sg17
I1
sg18
I5
sg19
g1
(g20
g3
NtRp1124
(dp1125
g23
I4
sg24
I3
sbsS'w'
I0
sbg1
(g2
g3
NtRp1126
(dp1127
g6
g1050
sg7
I-102
sg8
L1978L
sg9
g10
(g11
tRp1128
sg19
g44
sg46
g47
(g48
(I0
tS'b'
tRp1129
(I1
(L4L
L3L
tg51
I00
S'\x00\x01\x01\x01\x01\x00\x01\x01\x01\x00\x01\x00'
tbsg52
I-102
sbssI6
(dp1130
g1
(g14
g3
NtRp1131
(dp1132
S'h'
I2
sg17
I1
sg18
I6
sg19
g1
(g20
g3
NtRp1133
(dp1134
g23
I4
sg24
I3
sbsS'w'
I0
sbg1
(g2
g3
NtRp1135
(dp1136
g6
g1050
sg7
I-102
sg8
L3322L
sg9
g10
(g11
tRp1137
sg19
g44
sg46
g47
(g48
(I0
tS'b'
tRp1138
(I1
(L4L
L3L
tg51
I00
S'\x01\x01\x00\x00\x01\x01\x01\x01\x01\x00\x01\x00'
tbsg52
I-102
sbsssg19
g44
sg46
g47
(g48
(I0
tS'b'
tRp1139
(I1
(L4L
L3L
tg51
I00
S'\x00\x00\x00\x00\x00\x00\x01\x01\x01\x00\x01\x00'
tbsg52
I-454
sbssI3
(dp1140
g1
(g14
g3
NtRp1141
(dp1142
S'h'
I0
sg17
I2
sg18
I3
sg19
g1
(g20
g3
NtRp1143
(dp1144
g23
I4
sg24
I3
sbsS'w'
I0
sbg1
(g2
g3
NtRp1145
(dp1146
g6
g4
sg7
Finf
sg8
L150L
sg9
g10
(g11
tRp1147
I0
(dp1148
g1
(g14
g3
NtRp1149
(dp1150
S'h'
I0
sg17
I0
sg18
I0
sg19
g292
sS'w'
I2
sbg1
(g2
g3
NtRp1151
(dp1152
g6
g1145
sg7
Finf
sg8
L735L
sg9
g10
(g11
tRp1153
I3
(dp1154
g1
(g14
g3
NtRp1155
(dp1156
S'h'
I1
sg17
I0
sg18
I3
sg19
g300
sS'w'
I0
sbg1
(g2
g3
NtRp1157
(dp1158
g6
g1151
sg7
Finf
sg8
L4095L
sg9
g10
(g11
tRp1159
sg19
g44
sg46
g47
(g48
(I0
tS'b'
tRp1160
(I1
(L4L
L3L
tg51
I00
S'\x01\x01\x01\x01\x01\x01\x01\x01\x01\x01\x01\x01'
tbsg52
Finf
sbsssg19
g44
sg46
g47
(g48
(I0
tS'b'
tRp1161
(I1
(L4L
L3L
tg51
I00
S'\x00\x00\x01\x00\x01\x01\x00\x01\x01\x01\x01\x01'
tbsg52
I-251
sbssI3
(dp1162
g1
(g14
g3
NtRp1163
(dp1164
S'h'
I2
sg17
I3
sg18
I3
sg19
g1
(g20
g3
NtRp1165
(dp1166
g23
I4
sg24
I3
sbsS'w'
I0
sbg1
(g2
g3
NtRp1167
(dp1168
g6
g1145
sg7
I-101
sg8
L3798L
sg9
g10
(g11
tRp1169
sg19
g44
sg46
g47
(g48
(I0
tS'b'
tRp1170
(I1
(L4L
L3L
tg51
I00
S'\x01\x01\x01\x00\x01\x01\x00\x01\x00\x01\x01\x00'
tbsg52
I-101
sbsg1
(g14
g3
NtRp1171
(dp1172
S'h'
I1
sg17
I0
sg18
I3
sg19
g1
(g20
g3
NtRp1173
(dp1174
g23
I4
sg24
I3
sbsS'w'
I0
sbg1
(g2
g3
NtRp1175
(dp1176
g6
g1145
sg7
Finf
sg8
L3510L
sg9
g10
(g11
tRp1177
I0
(dp1178
g1
(g14
g3
NtRp1179
(dp1180
S'h'
I0
sg17
I0
sg18
I0
sg19
g300
sS'w'
I2
sbg1
(g2
g3
NtRp1181
(dp1182
g6
g1175
sg7
Finf
sg8
L4095L
sg9
g10
(g11
tRp1183
sg19
g44
sg46
g47
(g48
(I0
tS'b'
tRp1184
(I1
(L4L
L3L
tg51
I00
S'\x01\x01\x01\x01\x01\x01\x01\x01\x01\x01\x01\x01'
tbsg52
Finf
sbsssg19
g44
sg46
g47
(g48
(I0
tS'b'
tRp1185
(I1
(L4L
L3L
tg51
I00
S'\x01\x01\x00\x01\x01\x00\x01\x01\x00\x01\x01\x00'
tbsg52
I62
sbssI4
(dp1186
g1
(g14
g3
NtRp1187
(dp1188
S'h'
I2
sg17
I1
sg18
I4
sg19
g1
(g20
g3
NtRp1189
(dp1190
g23
I4
sg24
I3
sbsS'w'
I0
sbg1
(g2
g3
NtRp1191
(dp1192
g6
g1145
sg7
I-21
sg8
L3990L
sg9
g10
(g11
tRp1193
sg19
g44
sg46
g47
(g48
(I0
tS'b'
tRp1194
(I1
(L4L
L3L
tg51
I00
S'\x01\x01\x01\x01\x01\x00\x00\x01\x00\x01\x01\x00'
tbsg52
I-21
sbsg1
(g14
g3
NtRp1195
(dp1196
S'h'
I1
sg17
I0
sg18
I4
sg19
g1
(g20
g3
NtRp1197
(dp1198
g23
I4
sg24
I3
sbsS'w'
I1
sbg1
(g2
g3
NtRp1199
(dp1200
g6
g1145
sg7
I-180
sg8
L1758L
sg9
g10
(g11
tRp1201
sg19
g44
sg46
g47
(g48
(I0
tS'b'
tRp1202
(I1
(L4L
L3L
tg51
I00
S'\x00\x01\x01\x00\x01\x01\x00\x01\x01\x01\x01\x00'
tbsg52
I-180
sbsssg19
g44
sg46
g47
(g48
(I0
tS'b'
tRp1203
(I1
(L4L
L3L
tg51
I00
S'\x00\x00\x00\x00\x01\x00\x00\x01\x00\x01\x01\x00'
tbsg52
I-304
sbsg1
(g14
g3
NtRp1204
(dp1205
S'h'
I0
sg17
I2
sg18
I3
sg19
g1
(g20
g3
NtRp1206
(dp1207
g23
I4
sg24
I3
sbsS'w'
I1
sbg1
(g2
g3
NtRp1208
(dp1209
g6
g4
sg7
Finf
sg8
L75L
sg9
g10
(g11
tRp1210
I0
(dp1211
g1
(g14
g3
NtRp1212
(dp1213
S'h'
I0
sg17
I0
sg18
I0
sg19
g115
sS'w'
I0
sbg1
(g2
g3
NtRp1214
(dp1215
g6
g1208
sg7
Finf
sg8
L2415L
sg9
g10
(g11
tRp1216
I3
(dp1217
g1
(g14
g3
NtRp1218
(dp1219
S'h'
I1
sg17
I0
sg18
I3
sg19
g123
sS'w'
I1
sbg1
(g2
g3
NtRp1220
(dp1221
g6
g1214
sg7
Finf
sg8
L4095L
sg9
g10
(g11
tRp1222
sg19
g44
sg46
g47
(g48
(I0
tS'b'
tRp1223
(I1
(L4L
L3L
tg51
I00
S'\x01\x01\x01\x01\x01\x01\x01\x01\x01\x01\x01\x01'
tbsg52
Finf
sbsssg19
g44
sg46
g47
(g48
(I0
tS'b'
tRp1224
(I1
(L4L
L3L
tg51
I00
S'\x01\x00\x00\x01\x00\x01\x01\x00\x01\x01\x01\x01'
tbsg52
I-235
sbssI1
(dp1225
g1
(g14
g3
NtRp1226
(dp1227
S'h'
I1
sg17
I0
sg18
I1
sg19
g1
(g20
g3
NtRp1228
(dp1229
g23
I4
sg24
I3
sbsS'w'
I0
sbg1
(g2
g3
NtRp1230
(dp1231
g6
g1208
sg7
I-170
sg8
L507L
sg9
g10
(g11
tRp1232
sg19
g44
sg46
g47
(g48
(I0
tS'b'
tRp1233
(I1
(L4L
L3L
tg51
I00
S'\x00\x00\x00\x01\x01\x01\x01\x01\x01\x00\x01\x01'
tbsg52
I-170
sbssI2
(dp1234
g1
(g14
g3
NtRp1235
(dp1236
S'h'
I0
sg17
I0
sg18
I2
sg19
g1
(g20
g3
NtRp1237
(dp1238
g23
I4
sg24
I3
sbsS'w'
I0
sbg1
(g2
g3
NtRp1239
(dp1240
g6
g1208
sg7
Finf
sg8
L383L
sg9
g10
(g11
tRp1241
I2
(dp1242
g1
(g14
g3
NtRp1243
(dp1244
S'h'
I2
sg17
I3
sg18
I2
sg19
g1
(g20
g3
NtRp1245
(dp1246
g23
I4
sg24
I3
sbsS'w'
I0
sbg1
(g2
g3
NtRp1247
(dp1248
g6
g1239
sg7
Finf
sg8
L4095L
sg9
g10
(g11
tRp1249
sg19
g44
sg46
g47
(g48
(I0
tS'b'
tRp1250
(I1
(L4L
L3L
tg51
I00
S'\x01\x01\x01\x01\x01\x01\x01\x01\x01\x01\x01\x01'
tbsg52
Finf
sbsssg19
g44
sg46
g47
(g48
(I0
tS'b'
tRp1251
(I1
(L4L
L3L
tg51
I00
S'\x00\x00\x00\x01\x00\x01\x01\x01\x01\x01\x01\x01'
tbsg52
I-242
sbsg1
(g14
g3
NtRp1252
(dp1253
S'h'
I2
sg17
I3
sg18
I2
sg19
g1
(g20
g3
NtRp1254
(dp1255
g23
I4
sg24
I3
sbsS'w'
I0
sbg1
(g2
g3
NtRp1256
(dp1257
g6
g1208
sg7
I-11
sg8
L3787L
sg9
g10
(g11
tRp1258
sg19
g44
sg46
g47
(g48
(I0
tS'b'
tRp1259
(I1
(L4L
L3L
tg51
I00
S'\x01\x01\x01\x00\x01\x01\x00\x00\x01\x00\x01\x01'
tbsg52
I-11
sbsg1
(g14
g3
NtRp1260
(dp1261
S'h'
I1
sg17
I2
sg18
I2
sg19
g1
(g20
g3
NtRp1262
(dp1263
g23
I4
sg24
I3
sbsS'w'
I0
sbg1
(g2
g3
NtRp1264
(dp1265
g6
g1208
sg7
I-101
sg8
L1499L
sg9
g10
(g11
tRp1266
sg19
g44
sg46
g47
(g48
(I0
tS'b'
tRp1267
(I1
(L4L
L3L
tg51
I00
S'\x00\x01\x00\x01\x01\x01\x00\x01\x01\x00\x01\x01'
tbsg52
I-101
sbssI3
(dp1268
g1
(g14
g3
NtRp1269
(dp1270
S'h'
I0
sg17
I0
sg18
I3
sg19
g1
(g20
g3
NtRp1271
(dp1272
g23
I4
sg24
I3
sbsS'w'
I0
sbg1
(g2
g3
NtRp1273
(dp1274
g6
g1208
sg7
I-244
sg8
L495L
sg9
g10
(g11
tRp1275
sg19
g44
sg46
g47
(g48
(I0
tS'b'
tRp1276
(I1
(L4L
L3L
tg51
I00
S'\x00\x00\x00\x01\x01\x01\x01\x00\x01\x01\x01\x01'
tbsg52
I-244
sbsg1
(g14
g3
NtRp1277
(dp1278
S'h'
I1
sg17
I2
sg18
I3
sg19
g1
(g20
g3
NtRp1279
(dp1280
g23
I4
sg24
I3
sbsS'w'
I0
sbg1
(g2
g3
NtRp1281
(dp1282
g6
g1208
sg7
I-181
sg8
L1275L
sg9
g10
(g11
tRp1283
sg19
g44
sg46
g47
(g48
(I0
tS'b'
tRp1284
(I1
(L4L
L3L
tg51
I00
S'\x00\x01\x00\x00\x01\x01\x01\x01\x01\x00\x01\x01'
tbsg52
I-181
sbsg1
(g14
g3
NtRp1285
(dp1286
S'h'
I1
sg17
I0
sg18
I3
sg19
g1
(g20
g3
NtRp1287
(dp1288
g23
I4
sg24
I3
sbsS'w'
I1
sbg1
(g2
g3
NtRp1289
(dp1290
g6
g1208
sg7
Finf
sg8
L1755L
sg9
g10
(g11
tRp1291
I0
(dp1292
g1
(g14
g3
NtRp1293
(dp1294
S'h'
I0
sg17
I0
sg18
I0
sg19
g123
sS'w'
I0
sbg1
(g2
g3
NtRp1295
(dp1296
g6
g1289
sg7
Finf
sg8
L4095L
sg9
g10
(g11
tRp1297
sg19
g44
sg46
g47
(g48
(I0
tS'b'
tRp1298
(I1
(L4L
L3L
tg51
I00
S'\x01\x01\x01\x01\x01\x01\x01\x01\x01\x01\x01\x01'
tbsg52
Finf
sbsssg19
g44
sg46
g47
(g48
(I0
tS'b'
tRp1299
(I1
(L4L
L3L
tg51
I00
S'\x00\x01\x01\x00\x01\x01\x00\x01\x01\x00\x01\x01'
tbsg52
I62
sbssI4
(dp1300
g1
(g14
g3
NtRp1301
(dp1302
S'h'
I2
sg17
I1
sg18
I4
sg19
g1
(g20
g3
NtRp1303
(dp1304
g23
I4
sg24
I3
sbsS'w'
I0
sbg1
(g2
g3
NtRp1305
(dp1306
g6
g1208
sg7
I-83
sg8
L3915L
sg9
g10
(g11
tRp1307
sg19
g44
sg46
g47
(g48
(I0
tS'b'
tRp1308
(I1
(L4L
L3L
tg51
I00
S'\x01\x01\x01\x01\x00\x01\x00\x00\x01\x00\x01\x01'
tbsg52
I-83
sbsg1
(g14
g3
NtRp1309
(dp1310
S'h'
I1
sg17
I0
sg18
I4
sg19
g1
(g20
g3
NtRp1311
(dp1312
g23
I4
sg24
I3
sbsS'w'
I0
sbg1
(g2
g3
NtRp1313
(dp1314
g6
g1208
sg7
I-20
sg8
L3291L
sg9
g10
(g11
tRp1315
sg19
g44
sg46
g47
(g48
(I0
tS'b'
tRp1316
(I1
(L4L
L3L
tg51
I00
S'\x01\x01\x00\x00\x01\x01\x00\x01\x01\x00\x01\x01'
tbsg52
I-20
sbsg1
(g14
g3
NtRp1317
(dp1318
S'h'
I1
sg17
I2
sg18
I4
sg19
g1
(g20
g3
NtRp1319
(dp1320
g23
I4
sg24
I3
sbsS'w'
I0
sbg1
(g2
g3
NtRp1321
(dp1322
g6
g1208
sg7
I-163
sg8
L2427L
sg9
g10
(g11
tRp1323
sg19
g44
sg46
g47
(g48
(I0
tS'b'
tRp1324
(I1
(L4L
L3L
tg51
I00
S'\x01\x00\x00\x01\x00\x01\x01\x01\x01\x00\x01\x01'
tbsg52
I-163
sbssI5
(dp1325
g1
(g14
g3
NtRp1326
(dp1327
S'h'
I2
sg17
I1
sg18
I5
sg19
g1
(g20
g3
NtRp1328
(dp1329
g23
I4
sg24
I3
sbsS'w'
I0
sbg1
(g2
g3
NtRp1330
(dp1331
g6
g1208
sg7
I-92
sg8
L1995L
sg9
g10
(g11
tRp1332
sg19
g44
sg46
g47
(g48
(I0
tS'b'
tRp1333
(I1
(L4L
L3L
tg51
I00
S'\x00\x01\x01\x01\x01\x01\x00\x00\x01\x00\x01\x01'
tbsg52
I-92
sbsg1
(g14
g3
NtRp1334
(dp1335
S'h'
I1
sg17
I0
sg18
I5
sg19
g1
(g20
g3
NtRp1336
(dp1337
g23
I4
sg24
I3
sbsS'w'
I0
sbg1
(g2
g3
NtRp1338
(dp1339
g6
g1208
sg7
I-91
sg8
L2523L
sg9
g10
(g11
tRp1340
sg19
g44
sg46
g47
(g48
(I0
tS'b'
tRp1341
(I1
(L4L
L3L
tg51
I00
S'\x01\x00\x00\x01\x01\x01\x00\x01\x01\x00\x01\x01'
tbsg52
I-91
sbssI6
(dp1342
g1
(g14
g3
NtRp1343
(dp1344
S'h'
I0
sg17
I0
sg18
I6
sg19
g1
(g20
g3
NtRp1345
(dp1346
g23
I4
sg24
I3
sbsS'w'
I0
sbg1
(g2
g3
NtRp1347
(dp1348
g6
g1208
sg7
Finf
sg8
L255L
sg9
g10
(g11
tRp1349
I4
(dp1350
g1
(g14
g3
NtRp1351
(dp1352
S'h'
I2
sg17
I1
sg18
I4
sg19
g1
(g20
g3
NtRp1353
(dp1354
g23
I4
sg24
I3
sbsS'w'
I0
sbg1
(g2
g3
NtRp1355
(dp1356
g6
g1347
sg7
Finf
sg8
L4095L
sg9
g10
(g11
tRp1357
sg19
g44
sg46
g47
(g48
(I0
tS'b'
tRp1358
(I1
(L4L
L3L
tg51
I00
S'\x01\x01\x01\x01\x01\x01\x01\x01\x01\x01\x01\x01'
tbsg52
Finf
sbsssg19
g44
sg46
g47
(g48
(I0
tS'b'
tRp1359
(I1
(L4L
L3L
tg51
I00
S'\x00\x00\x00\x00\x01\x01\x01\x01\x01\x01\x01\x01'
tbsg52
I-250
sbsssg19
g44
sg46
g47
(g48
(I0
tS'b'
tRp1360
(I1
(L4L
L3L
tg51
I00
S'\x00\x00\x00\x00\x00\x01\x00\x00\x01\x00\x01\x01'
tbsg52
I-284
sbsg1
(g14
g3
NtRp1361
(dp1362
S'h'
I0
sg17
I3
sg18
I3
sg19
g1
(g20
g3
NtRp1363
(dp1364
g23
I4
sg24
I3
sbsS'w'
I0
sbg1
(g2
g3
NtRp1365
(dp1366
g6
g4
sg7
I-81
sg8
L57L
sg9
g10
(g11
tRp1367
I1
(dp1368
g1
(g14
g3
NtRp1369
(dp1370
S'h'
I2
sg17
I0
sg18
I1
sg19
g1
(g20
g3
NtRp1371
(dp1372
g23
I4
sg24
I3
sbsS'w'
I0
sbg1
(g2
g3
NtRp1373
(dp1374
g6
g1365
sg7
I-90
sg8
L3513L
sg9
g10
(g11
tRp1375
sg19
g44
sg46
g47
(g48
(I0
tS'b'
tRp1376
(I1
(L4L
L3L
tg51
I00
S'\x01\x01\x00\x01\x01\x00\x01\x01\x01\x00\x00\x01'
tbsg52
I-90
sbsg1
(g14
g3
NtRp1377
(dp1378
S'h'
I2
sg17
I0
sg18
I1
sg19
g1
(g20
g3
NtRp1379
(dp1380
g23
I4
sg24
I3
sbsS'w'
I1
sbg1
(g2
g3
NtRp1381
(dp1382
g6
g1365
sg7
I-90
sg8
L1785L
sg9
g10
(g11
tRp1383
sg19
g44
sg46
g47
(g48
(I0
tS'b'
tRp1384
(I1
(L4L
L3L
tg51
I00
S'\x00\x01\x01\x00\x01\x01\x01\x01\x01\x00\x00\x01'
tbsg52
I-90
sbssI2
(dp1385
g1
(g14
g3
NtRp1386
(dp1387
S'h'
I2
sg17
I1
sg18
I2
sg19
g1
(g20
g3
NtRp1388
(dp1389
g23
I4
sg24
I3
sbsS'w'
I0
sbg1
(g2
g3
NtRp1390
(dp1391
g6
g1365
sg7
I-91
sg8
L1529L
sg9
g10
(g11
tRp1392
sg19
g44
sg46
g47
(g48
(I0
tS'b'
tRp1393
(I1
(L4L
L3L
tg51
I00
S'\x00\x01\x00\x01\x01\x01\x01\x01\x01\x00\x00\x01'
tbsg52
I-91
sbsg1
(g14
g3
NtRp1394
(dp1395
S'h'
I2
sg17
I3
sg18
I2
sg19
g1
(g20
g3
NtRp1396
(dp1397
g23
I4
sg24
I3
sbsS'w'
I0
sbg1
(g2
g3
NtRp1398
(dp1399
g6
g1365
sg7
I-93
sg8
L3769L
sg9
g10
(g11
tRp1400
sg19
g44
sg46
g47
(g48
(I0
tS'b'
tRp1401
(I1
(L4L
L3L
tg51
I00
S'\x01\x01\x01\x00\x01\x00\x01\x01\x01\x00\x00\x01'
tbsg52
I-93
sbssI3
(dp1402
g1
(g14
g3
NtRp1403
(dp1404
S'h'
I2
sg17
I1
sg18
I3
sg19
g1
(g20
g3
NtRp1405
(dp1406
g23
I4
sg24
I3
sbsS'w'
I0
sbg1
(g2
g3
NtRp1407
(dp1408
g6
g1365
sg7
I-81
sg8
L2553L
sg9
g10
(g11
tRp1409
sg19
g44
sg46
g47
(g48
(I0
tS'b'
tRp1410
(I1
(L4L
L3L
tg51
I00
S'\x01\x00\x00\x01\x01\x01\x01\x01\x01\x00\x00\x01'
tbsg52
I-81
sbsg1
(g14
g3
NtRp1411
(dp1412
S'h'
I2
sg17
I3
sg18
I3
sg19
g1
(g20
g3
NtRp1413
(dp1414
g23
I4
sg24
I3
sbsS'w'
I0
sbg1
(g2
g3
NtRp1415
(dp1416
g6
g1365
sg7
I-83
sg8
L3705L
sg9
g10
(g11
tRp1417
sg19
g44
sg46
g47
(g48
(I0
tS'b'
tRp1418
(I1
(L4L
L3L
tg51
I00
S'\x01\x01\x01\x00\x00\x01\x01\x01\x01\x00\x00\x01'
tbsg52
I-83
sbssI4
(dp1419
g1
(g14
g3
NtRp1420
(dp1421
S'h'
I2
sg17
I1
sg18
I4
sg19
g1
(g20
g3
NtRp1422
(dp1423
g23
I4
sg24
I3
sbsS'w'
I0
sbg1
(g2
g3
NtRp1424
(dp1425
g6
g1365
sg7
I-83
sg8
L3897L
sg9
g10
(g11
tRp1426
sg19
g44
sg46
g47
(g48
(I0
tS'b'
tRp1427
(I1
(L4L
L3L
tg51
I00
S'\x01\x01\x01\x01\x00\x00\x01\x01\x01\x00\x00\x01'
tbsg52
I-83
sbsg1
(g14
g3
NtRp1428
(dp1429
S'h'
I2
sg17
I3
sg18
I4
sg19
g1
(g20
g3
NtRp1430
(dp1431
g23
I4
sg24
I3
sbsS'w'
I0
sbg1
(g2
g3
NtRp1432
(dp1433
g6
g1365
sg7
I-81
sg8
L1017L
sg9
g10
(g11
tRp1434
sg19
g44
sg46
g47
(g48
(I0
tS'b'
tRp1435
(I1
(L4L
L3L
tg51
I00
S'\x00\x00\x01\x01\x01\x01\x01\x01\x01\x00\x00\x01'
tbsg52
I-81
sbssI5
(dp1436
g1
(g14
g3
NtRp1437
(dp1438
S'h'
I2
sg17
I1
sg18
I5
sg19
g1
(g20
g3
NtRp1439
(dp1440
g23
I4
sg24
I3
sbsS'w'
I0
sbg1
(g2
g3
NtRp1441
(dp1442
g6
g1365
sg7
I-92
sg8
L1977L
sg9
g10
(g11
tRp1443
sg19
g44
sg46
g47
(g48
(I0
tS'b'
tRp1444
(I1
(L4L
L3L
tg51
I00
S'\x00\x01\x01\x01\x01\x00\x01\x01\x01\x00\x00\x01'
tbsg52
I-92
sbssI6
(dp1445
g1
(g14
g3
NtRp1446
(dp1447
S'h'
I2
sg17
I1
sg18
I6
sg19
g1
(g20
g3
NtRp1448
(dp1449
g23
I4
sg24
I3
sbsS'w'
I0
sbg1
(g2
g3
NtRp1450
(dp1451
g6
g1365
sg7
I-92
sg8
L3321L
sg9
g10
(g11
tRp1452
sg19
g44
sg46
g47
(g48
(I0
tS'b'
tRp1453
(I1
(L4L
L3L
tg51
I00
S'\x01\x01\x00\x00\x01\x01\x01\x01\x01\x00\x00\x01'
tbsg52
I-92
sbsssg19
g44
sg46
g47
(g48
(I0
tS'b'
tRp1454
(I1
(L4L
L3L
tg51
I00
S'\x00\x00\x00\x00\x00\x00\x01\x01\x01\x00\x00\x01'
tbsg52
I-444
sbsg1
(g14
g3
NtRp1455
(dp1456
S'h'
I0
sg17
I0
sg18
I3
sg19
g1
(g20
g3
NtRp1457
(dp1458
g23
I4
sg24
I3
sbsS'w'
I0
sbg1
(g2
g3
NtRp1459
(dp1460
g6
g4
sg7
I81
sg8
L420L
sg9
g10
(g11
tRp1461
I0
(dp1462
g1
(g14
g3
NtRp1463
(dp1464
S'h'
I0
sg17
I0
sg18
I0
sg19
g284
sS'w'
I2
sbg1
(g2
g3
NtRp1465
(dp1466
g6
g1459
sg7
I-75
sg8
L1005L
sg9
g10
(g11
tRp1467
sg19
g44
sg46
g47
(g48
(I0
tS'b'
tRp1468
(I1
(L4L
L3L
tg51
I00
S'\x00\x00\x01\x01\x01\x01\x01\x00\x01\x01\x00\x01'
tbsg52
I-75
sbssI3
(dp1469
g1
(g14
g3
NtRp1470
(dp1471
S'h'
I2
sg17
I3
sg18
I3
sg19
g1
(g20
g3
NtRp1472
(dp1473
g23
I4
sg24
I3
sbsS'w'
I0
sbg1
(g2
g3
NtRp1474
(dp1475
g6
g1459
sg7
I81
sg8
L4068L
sg9
g10
(g11
tRp1476
sg19
g44
sg46
g47
(g48
(I0
tS'b'
tRp1477
(I1
(L4L
L3L
tg51
I00
S'\x01\x01\x01\x01\x01\x01\x01\x00\x00\x01\x00\x00'
tbsg52
I81
sbsg1
(g14
g3
NtRp1478
(dp1479
S'h'
I0
sg17
I2
sg18
I3
sg19
g1271
sS'w'
I1
sbg1
(g2
g3
NtRp1480
(dp1481
g6
g1459
sg7
I-244
sg8
L495L
sg9
g10
(g11
tRp1482
sg19
g44
sg46
g47
(g48
(I0
tS'b'
tRp1483
(I1
(L4L
L3L
tg51
I00
S'\x00\x00\x00\x01\x01\x01\x01\x00\x01\x01\x01\x01'
tbsg52
I-244
sbssI4
(dp1484
g1
(g14
g3
NtRp1485
(dp1486
S'h'
I1
sg17
I0
sg18
I4
sg19
g1
(g20
g3
NtRp1487
(dp1488
g23
I4
sg24
I3
sbsS'w'
I1
sbg1
(g2
g3
NtRp1489
(dp1490
g6
g1459
sg7
I-2
sg8
L2028L
sg9
g10
(g11
tRp1491
sg19
g44
sg46
g47
(g48
(I0
tS'b'
tRp1492
(I1
(L4L
L3L
tg51
I00
S'\x00\x01\x01\x01\x01\x01\x01\x00\x01\x01\x00\x00'
tbsg52
I-2
sbsssg19
g44
sg46
g47
(g48
(I0
tS'b'
tRp1493
(I1
(L4L
L3L
tg51
I00
S'\x00\x00\x00\x01\x01\x00\x01\x00\x00\x01\x00\x00'
tbsg52
I-124
sbsg1
(g14
g3
NtRp1494
(dp1495
S'h'
I0
sg17
I0
sg18
I3
sg19
g1
(g20
g3
NtRp1496
(dp1497
g23
I4
sg24
I3
sbsS'w'
I1
sbg1
(g2
g3
NtRp1498
(dp1499
g6
g4
sg7
I61
sg8
L210L
sg9
g10
(g11
tRp1500
I0
(dp1501
g1
(g14
g3
NtRp1502
(dp1503
S'h'
I0
sg17
I0
sg18
I0
sg19
g107
sS'w'
I0
sbg1
(g2
g3
NtRp1504
(dp1505
g6
g1498
sg7
I-91
sg8
L2550L
sg9
g10
(g11
tRp1506
sg19
g44
sg46
g47
(g48
(I0
tS'b'
tRp1507
(I1
(L4L
L3L
tg51
I00
S'\x01\x00\x00\x01\x01\x01\x01\x01\x00\x01\x01\x00'
tbsg52
I-91
sbssI3
(dp1508
g1
(g14
g3
NtRp1509
(dp1510
S'h'
I1
sg17
I0
sg18
I3
sg19
g1
(g20
g3
NtRp1511
(dp1512
g23
I4
sg24
I3
sbsS'w'
I0
sbg1
(g2
g3
NtRp1513
(dp1514
g6
g1498
sg7
I-20
sg8
L3570L
sg9
g10
(g11
tRp1515
sg19
g44
sg46
g47
(g48
(I0
tS'b'
tRp1516
(I1
(L4L
L3L
tg51
I00
S'\x01\x01\x00\x01\x01\x01\x01\x01\x00\x00\x01\x00'
tbsg52
I-20
sbssI4
(dp1517
g1
(g14
g3
NtRp1518
(dp1519
S'h'
I2
sg17
I1
sg18
I4
sg19
g1
(g20
g3
NtRp1520
(dp1521
g23
I4
sg24
I3
sbsS'w'
I0
sbg1
(g2
g3
NtRp1522
(dp1523
g6
g1498
sg7
I61
sg8
L4050L
sg9
g10
(g11
tRp1524
sg19
g44
sg46
g47
(g48
(I0
tS'b'
tRp1525
(I1
(L4L
L3L
tg51
I00
S'\x01\x01\x01\x01\x01\x01\x00\x01\x00\x00\x01\x00'
tbsg52
I61
sbsssg19
g44
sg46
g47
(g48
(I0
tS'b'
tRp1526
(I1
(L4L
L3L
tg51
I00
S'\x00\x00\x00\x00\x01\x01\x00\x01\x00\x00\x01\x00'
tbsg52
I-144
sbsg1
(g14
g3
NtRp1527
(dp1528
S'h'
I0
sg17
I1
sg18
I3
sg19
g1
(g20
g3
NtRp1529
(dp1530
g23
I4
sg24
I3
sbsS'w'
I0
sbg1
(g2
g3
NtRp1531
(dp1532
g6
g4
sg7
Finf
sg8
L39L
sg9
g10
(g11
tRp1533
I1
(dp1534
g1
(g14
g3
NtRp1535
(dp1536
S'h'
I1
sg17
I0
sg18
I1
sg19
g1
(g20
g3
NtRp1537
(dp1538
g23
I4
sg24
I3
sbsS'w'
I1
sbg1
(g2
g3
NtRp1539
(dp1540
g6
g1531
sg7
Finf
sg8
L255L
sg9
g10
(g11
tRp1541
I4
(dp1542
g1
(g14
g3
NtRp1543
(dp1544
S'h'
I2
sg17
I1
sg18
I4
sg19
g1
(g20
g3
NtRp1545
(dp1546
g23
I4
sg24
I3
sbsS'w'
I0
sbg1
(g2
g3
NtRp1547
(dp1548
g6
g1539
sg7
Finf
sg8
L4095L
sg9
g10
(g11
tRp1549
sg19
g44
sg46
g47
(g48
(I0
tS'b'
tRp1550
(I1
(L4L
L3L
tg51
I00
S'\x01\x01\x01\x01\x01\x01\x01\x01\x01\x01\x01\x01'
tbsg52
Finf
sbsssg19
g44
sg46
g47
(g48
(I0
tS'b'
tRp1551
(I1
(L4L
L3L
tg51
I00
S'\x00\x00\x00\x00\x01\x01\x01\x01\x01\x01\x01\x01'
tbsg52
I-250
sbsg1
(g14
g3
NtRp1552
(dp1553
S'h'
I2
sg17
I0
sg18
I1
sg19
g1
(g20
g3
NtRp1554
(dp1555
g23
I4
sg24
I3
sbsS'w'
I0
sbg1
(g2
g3
NtRp1556
(dp1557
g6
g1531
sg7
I-252
sg8
L3495L
sg9
g10
(g11
tRp1558
sg19
g44
sg46
g47
(g48
(I0
tS'b'
tRp1559
(I1
(L4L
L3L
tg51
I00
S'\x01\x01\x00\x01\x01\x00\x01\x00\x00\x01\x01\x01'
tbsg52
I-252
sbssI2
(dp1560
g1
(g14
g3
NtRp1561
(dp1562
S'h'
I2
sg17
I1
sg18
I2
sg19
g1
(g20
g3
NtRp1563
(dp1564
g23
I4
sg24
I3
sbsS'w'
I0
sbg1
(g2
g3
NtRp1565
(dp1566
g6
g1531
sg7
I-255
sg8
L1511L
sg9
g10
(g11
tRp1567
sg19
g44
sg46
g47
(g48
(I0
tS'b'
tRp1568
(I1
(L4L
L3L
tg51
I00
S'\x00\x01\x00\x01\x01\x01\x01\x00\x00\x01\x01\x01'
tbsg52
I-255
sbsg1
(g14
g3
NtRp1569
(dp1570
S'h'
I1
sg17
I2
sg18
I2
sg19
g1
(g20
g3
NtRp1571
(dp1572
g23
I4
sg24
I3
sbsS'w'
I0
sbg1
(g2
g3
NtRp1573
(dp1574
g6
g1531
sg7
I-261
sg8
L1463L
sg9
g10
(g11
tRp1575
sg19
g44
sg46
g47
(g48
(I0
tS'b'
tRp1576
(I1
(L4L
L3L
tg51
I00
S'\x00\x01\x00\x01\x01\x00\x01\x01\x00\x01\x01\x01'
tbsg52
I-261
sbsg1
(g14
g3
NtRp1577
(dp1578
S'h'
I1
sg17
I0
sg18
I2
sg19
g1
(g20
g3
NtRp1579
(dp1580
g23
I4
sg24
I3
sbsS'w'
I1
sbg1
(g2
g3
NtRp1581
(dp1582
g6
g1531
sg7
I-263
sg8
L1271L
sg9
g10
(g11
tRp1583
sg19
g44
sg46
g47
(g48
(I0
tS'b'
tRp1584
(I1
(L4L
L3L
tg51
I00
S'\x00\x01\x00\x00\x01\x01\x01\x01\x00\x01\x01\x01'
tbsg52
I-263
sbsg1
(g14
g3
NtRp1585
(dp1586
S'h'
I1
sg17
I2
sg18
I2
sg19
g1
(g20
g3
NtRp1587
(dp1588
g23
I4
sg24
I3
sbsS'w'
I1
sbg1
(g2
g3
NtRp1589
(dp1590
g6
g1531
sg7
I-245
sg8
L751L
sg9
g10
(g11
tRp1591
sg19
g44
sg46
g47
(g48
(I0
tS'b'
tRp1592
(I1
(L4L
L3L
tg51
I00
S'\x00\x00\x01\x00\x01\x01\x01\x00\x01\x01\x01\x01'
tbsg52
I-245
sbsg1
(g14
g3
NtRp1593
(dp1594
S'h'
I1
sg17
I3
sg18
I2
sg19
g1
(g20
g3
NtRp1595
(dp1596
g23
I4
sg24
I3
sbsS'w'
I0
sbg1
(g2
g3
NtRp1597
(dp1598
g6
g1531
sg7
I-252
sg8
L503L
sg9
g10
(g11
tRp1599
sg19
g44
sg46
g47
(g48
(I0
tS'b'
tRp1600
(I1
(L4L
L3L
tg51
I00
S'\x00\x00\x00\x01\x01\x01\x01\x01\x00\x01\x01\x01'
tbsg52
I-252
sbssI3
(dp1601
g1
(g14
g3
NtRp1602
(dp1603
S'h'
I2
sg17
I1
sg18
I3
sg19
g1
(g20
g3
NtRp1604
(dp1605
g23
I4
sg24
I3
sbsS'w'
I0
sbg1
(g2
g3
NtRp1606
(dp1607
g6
g1531
sg7
I-245
sg8
L2535L
sg9
g10
(g11
tRp1608
sg19
g44
sg46
g47
(g48
(I0
tS'b'
tRp1609
(I1
(L4L
L3L
tg51
I00
S'\x01\x00\x00\x01\x01\x01\x01\x00\x00\x01\x01\x01'
tbsg52
I-245
sbsg1
(g14
g3
NtRp1610
(dp1611
S'h'
I1
sg17
I0
sg18
I3
sg19
g1
(g20
g3
NtRp1612
(dp1613
g23
I4
sg24
I3
sbsS'w'
I1
sbg1
(g2
g3
NtRp1614
(dp1615
g6
g1531
sg7
I-262
sg8
L1719L
sg9
g10
(g11
tRp1616
sg19
g44
sg46
g47
(g48
(I0
tS'b'
tRp1617
(I1
(L4L
L3L
tg51
I00
S'\x00\x01\x01\x00\x01\x00\x01\x01\x00\x01\x01\x01'
tbsg52
I-262
sbsg1
(g14
g3
NtRp1618
(dp1619
S'h'
I1
sg17
I2
sg18
I3
sg19
g1
(g20
g3
NtRp1620
(dp1621
g23
I4
sg24
I3
sbsS'w'
I1
sbg1
(g2
g3
NtRp1622
(dp1623
g6
g1531
sg7
Finf
sg8
L639L
sg9
g10
(g11
tRp1624
I1
(dp1625
g1
(g14
g3
NtRp1626
(dp1627
S'h'
I2
sg17
I0
sg18
I1
sg19
g1
(g20
g3
NtRp1628
(dp1629
g23
I4
sg24
I3
sbsS'w'
I0
sbg1
(g2
g3
NtRp1630
(dp1631
g6
g1622
sg7
Finf
sg8
L4095L
sg9
g10
(g11
tRp1632
sg19
g44
sg46
g47
(g48
(I0
tS'b'
tRp1633
(I1
(L4L
L3L
tg51
I00
S'\x01\x01\x01\x01\x01\x01\x01\x01\x01\x01\x01\x01'
tbsg52
Finf
sbsssg19
g44
sg46
g47
(g48
(I0
tS'b'
tRp1634
(I1
(L4L
L3L
tg51
I00
S'\x00\x00\x01\x00\x00\x01\x01\x01\x01\x01\x01\x01'
tbsg52
I-241
sbsg1
(g14
g3
NtRp1635
(dp1636
S'h'
I1
sg17
I3
sg18
I3
sg19
g1
(g20
g3
NtRp1637
(dp1638
g23
I4
sg24
I3
sbsS'w'
I0
sbg1
(g2
g3
NtRp1639
(dp1640
g6
g1531
sg7
I-244
sg8
L495L
sg9
g10
(g11
tRp1641
sg19
g44
sg46
g47
(g48
(I0
tS'b'
tRp1642
(I1
(L4L
L3L
tg51
I00
S'\x00\x00\x00\x01\x01\x01\x01\x00\x01\x01\x01\x01'
tbsg52
I-244
sbssI4
(dp1643
g1
(g14
g3
NtRp1644
(dp1645
S'h'
I2
sg17
I1
sg18
I4
sg19
g1
(g20
g3
NtRp1646
(dp1647
g23
I4
sg24
I3
sbsS'w'
I0
sbg1
(g2
g3
NtRp1648
(dp1649
g6
g1531
sg7
I-243
sg8
L3879L
sg9
g10
(g11
tRp1650
sg19
g44
sg46
g47
(g48
(I0
tS'b'
tRp1651
(I1
(L4L
L3L
tg51
I00
S'\x01\x01\x01\x01\x00\x00\x01\x00\x00\x01\x01\x01'
tbsg52
I-243
sbsg1
(g14
g3
NtRp1652
(dp1653
S'h'
I2
sg17
I3
sg18
I4
sg19
g1
(g20
g3
NtRp1654
(dp1655
g23
I4
sg24
I3
sbsS'w'
I0
sbg1
(g2
g3
NtRp1656
(dp1657
g6
g1531
sg7
I-245
sg8
L999L
sg9
g10
(g11
tRp1658
sg19
g44
sg46
g47
(g48
(I0
tS'b'
tRp1659
(I1
(L4L
L3L
tg51
I00
S'\x00\x00\x01\x01\x01\x01\x01\x00\x00\x01\x01\x01'
tbsg52
I-245
sbsg1
(g14
g3
NtRp1660
(dp1661
S'h'
I1
sg17
I0
sg18
I4
sg19
g1
(g20
g3
NtRp1662
(dp1663
g23
I4
sg24
I3
sbsS'w'
I0
sbg1
(g2
g3
NtRp1664
(dp1665
g6
g1531
sg7
I-262
sg8
L3255L
sg9
g10
(g11
tRp1666
sg19
g44
sg46
g47
(g48
(I0
tS'b'
tRp1667
(I1
(L4L
L3L
tg51
I00
S'\x01\x01\x00\x00\x01\x00\x01\x01\x00\x01\x01\x01'
tbsg52
I-262
sbsg1
(g14
g3
NtRp1668
(dp1669
S'h'
I1
sg17
I0
sg18
I4
sg19
g1
(g20
g3
NtRp1670
(dp1671
g23
I4
sg24
I3
sbsS'w'
I1
sbg1
(g2
g3
NtRp1672
(dp1673
g6
g1531
sg7
I-244
sg8
L1647L
sg9
g10
(g11
tRp1674
sg19
g44
sg46
g47
(g48
(I0
tS'b'
tRp1675
(I1
(L4L
L3L
tg51
I00
S'\x00\x01\x01\x00\x00\x01\x01\x00\x01\x01\x01\x01'
tbsg52
I-244
sbsg1
(g14
g3
NtRp1676
(dp1677
S'h'
I1
sg17
I2
sg18
I4
sg19
g1
(g20
g3
NtRp1678
(dp1679
g23
I4
sg24
I3
sbsS'w'
I1
sbg1
(g2
g3
NtRp1680
(dp1681
g6
g1531
sg7
I-261
sg8
L1215L
sg9
g10
(g11
tRp1682
sg19
g44
sg46
g47
(g48
(I0
tS'b'
tRp1683
(I1
(L4L
L3L
tg51
I00
S'\x00\x01\x00\x00\x01\x00\x01\x01\x01\x01\x01\x01'
tbsg52
I-261
sbssI5
(dp1684
g1
(g14
g3
NtRp1685
(dp1686
S'h'
I2
sg17
I1
sg18
I5
sg19
g1
(g20
g3
NtRp1687
(dp1688
g23
I4
sg24
I3
sbsS'w'
I0
sbg1
(g2
g3
NtRp1689
(dp1690
g6
g1531
sg7
I-254
sg8
L1959L
sg9
g10
(g11
tRp1691
sg19
g44
sg46
g47
(g48
(I0
tS'b'
tRp1692
(I1
(L4L
L3L
tg51
I00
S'\x00\x01\x01\x01\x01\x00\x01\x00\x00\x01\x01\x01'
tbsg52
I-254
sbsg1
(g14
g3
NtRp1693
(dp1694
S'h'
I1
sg17
I0
sg18
I5
sg19
g1
(g20
g3
NtRp1695
(dp1696
g23
I4
sg24
I3
sbsS'w'
I0
sbg1
(g2
g3
NtRp1697
(dp1698
g6
g1531
sg7
Finf
sg8
L2487L
sg9
g10
(g11
tRp1699
I4
(dp1700
g1
(g14
g3
NtRp1701
(dp1702
S'h'
I1
sg17
I0
sg18
I4
sg19
g1
(g20
g3
NtRp1703
(dp1704
g23
I4
sg24
I3
sbsS'w'
I1
sbg1
(g2
g3
NtRp1705
(dp1706
g6
g1697
sg7
Finf
sg8
L4095L
sg9
g10
(g11
tRp1707
sg19
g44
sg46
g47
(g48
(I0
tS'b'
tRp1708
(I1
(L4L
L3L
tg51
I00
S'\x01\x01\x01\x01\x01\x01\x01\x01\x01\x01\x01\x01'
tbsg52
Finf
sbsssg19
g44
sg46
g47
(g48
(I0
tS'b'
tRp1709
(I1
(L4L
L3L
tg51
I00
S'\x01\x00\x00\x01\x01\x00\x01\x01\x00\x01\x01\x01'
tbsg52
I-251
sbsg1
(g14
g3
NtRp1710
(dp1711
S'h'
I1
sg17
I0
sg18
I5
sg19
g1
(g20
g3
NtRp1712
(dp1713
g23
I4
sg24
I3
sbsS'w'
I1
sbg1
(g2
g3
NtRp1714
(dp1715
g6
g1531
sg7
I-255
sg8
L1263L
sg9
g10
(g11
tRp1716
sg19
g44
sg46
g47
(g48
(I0
tS'b'
tRp1717
(I1
(L4L
L3L
tg51
I00
S'\x00\x01\x00\x00\x01\x01\x01\x00\x01\x01\x01\x01'
tbsg52
I-255
sbssI6
(dp1718
g1
(g14
g3
NtRp1719
(dp1720
S'h'
I1
sg17
I0
sg18
I6
sg19
g1
(g20
g3
NtRp1721
(dp1722
g23
I4
sg24
I3
sbsS'w'
I1
sbg1
(g2
g3
NtRp1723
(dp1724
g6
g1531
sg7
I-253
sg8
L759L
sg9
g10
(g11
tRp1725
sg19
g44
sg46
g47
(g48
(I0
tS'b'
tRp1726
(I1
(L4L
L3L
tg51
I00
S'\x00\x00\x01\x00\x01\x01\x01\x01\x00\x01\x01\x01'
tbsg52
I-253
sbsg1
(g14
g3
NtRp1727
(dp1728
S'h'
I1
sg17
I1
sg18
I6
sg19
g1
(g20
g3
NtRp1729
(dp1730
g23
I4
sg24
I3
sbsS'w'
I0
sbg1
(g2
g3
NtRp1731
(dp1732
g6
g1531
sg7
Finf
sg8
L447L
sg9
g10
(g11
tRp1733
I3
(dp1734
g1
(g14
g3
NtRp1735
(dp1736
S'h'
I2
sg17
I3
sg18
I3
sg19
g1
(g20
g3
NtRp1737
(dp1738
g23
I4
sg24
I3
sbsS'w'
I0
sbg1
(g2
g3
NtRp1739
(dp1740
g6
g1731
sg7
Finf
sg8
L4095L
sg9
g10
(g11
tRp1741
sg19
g44
sg46
g47
(g48
(I0
tS'b'
tRp1742
(I1
(L4L
L3L
tg51
I00
S'\x01\x01\x01\x01\x01\x01\x01\x01\x01\x01\x01\x01'
tbsg52
Finf
sbsssg19
g44
sg46
g47
(g48
(I0
tS'b'
tRp1743
(I1
(L4L
L3L
tg51
I00
S'\x00\x00\x00\x01\x01\x00\x01\x01\x01\x01\x01\x01'
tbsg52
I-250
sbsssg19
g44
sg46
g47
(g48
(I0
tS'b'
tRp1744
(I1
(L4L
L3L
tg51
I00
S'\x00\x00\x00\x00\x00\x00\x01\x00\x00\x01\x01\x01'
tbsg52
I-604
sbssI4
(dp1745
g1
(g14
g3
NtRp1746
(dp1747
S'h'
I0
sg17
I0
sg18
I4
sg19
g1
(g20
g3
NtRp1748
(dp1749
g23
I4
sg24
I3
sbsS'w'
I0
sbg1
(g2
g3
NtRp1750
(dp1751
g6
g4
sg7
I61
sg8
L402L
sg9
g10
(g11
tRp1752
I0
(dp1753
g1
(g14
g3
NtRp1754
(dp1755
S'h'
I0
sg17
I0
sg18
I0
sg19
g310
sS'w'
I2
sbg1
(g2
g3
NtRp1756
(dp1757
g6
g1750
sg7
I-91
sg8
L987L
sg9
g10
(g11
tRp1758
sg19
g44
sg46
g47
(g48
(I0
tS'b'
tRp1759
(I1
(L4L
L3L
tg51
I00
S'\x00\x00\x01\x01\x01\x01\x00\x01\x01\x00\x01\x01'
tbsg52
I-91
sbssI3
(dp1760
g1
(g14
g3
NtRp1761
(dp1762
S'h'
I2
sg17
I3
sg18
I3
sg19
g1
(g20
g3
NtRp1763
(dp1764
g23
I4
sg24
I3
sbsS'w'
I0
sbg1
(g2
g3
NtRp1765
(dp1766
g6
g1750
sg7
I61
sg8
L4050L
sg9
g10
(g11
tRp1767
sg19
g44
sg46
g47
(g48
(I0
tS'b'
tRp1768
(I1
(L4L
L3L
tg51
I00
S'\x01\x01\x01\x01\x01\x01\x00\x01\x00\x00\x01\x00'
tbsg52
I61
sbssI4
(dp1769
g1
(g14
g3
NtRp1770
(dp1771
S'h'
I1
sg17
I0
sg18
I4
sg19
g1
(g20
g3
NtRp1772
(dp1773
g23
I4
sg24
I3
sbsS'w'
I1
sbg1
(g2
g3
NtRp1774
(dp1775
g6
g1750
sg7
I-20
sg8
L2010L
sg9
g10
(g11
tRp1776
sg19
g44
sg46
g47
(g48
(I0
tS'b'
tRp1777
(I1
(L4L
L3L
tg51
I00
S'\x00\x01\x01\x01\x01\x01\x00\x01\x01\x00\x01\x00'
tbsg52
I-20
sbsssg19
g44
sg46
g47
(g48
(I0
tS'b'
tRp1778
(I1
(L4L
L3L
tg51
I00
S'\x00\x00\x00\x01\x01\x00\x00\x01\x00\x00\x01\x00'
tbsg52
I-144
sbsg1
(g14
g3
NtRp1779
(dp1780
S'h'
I0
sg17
I0
sg18
I4
sg19
g1
(g20
g3
NtRp1781
(dp1782
g23
I4
sg24
I3
sbsS'w'
I1
sbg1
(g2
g3
NtRp1783
(dp1784
g6
g4
sg7
I81
sg8
L201L
sg9
g10
(g11
tRp1785
I0
(dp1786
g1
(g14
g3
NtRp1787
(dp1788
S'h'
I0
sg17
I0
sg18
I0
sg19
g133
sS'w'
I0
sbg1
(g2
g3
NtRp1789
(dp1790
g6
g1783
sg7
I-75
sg8
L2541L
sg9
g10
(g11
tRp1791
sg19
g44
sg46
g47
(g48
(I0
tS'b'
tRp1792
(I1
(L4L
L3L
tg51
I00
S'\x01\x00\x00\x01\x01\x01\x01\x00\x01\x01\x00\x01'
tbsg52
I-75
sbssI3
(dp1793
g1
(g14
g3
NtRp1794
(dp1795
S'h'
I1
sg17
I0
sg18
I3
sg19
g1
(g20
g3
NtRp1796
(dp1797
g23
I4
sg24
I3
sbsS'w'
I0
sbg1
(g2
g3
NtRp1798
(dp1799
g6
g1783
sg7
I-2
sg8
L3561L
sg9
g10
(g11
tRp1800
sg19
g44
sg46
g47
(g48
(I0
tS'b'
tRp1801
(I1
(L4L
L3L
tg51
I00
S'\x01\x01\x00\x01\x01\x01\x01\x00\x01\x00\x00\x01'
tbsg52
I-2
sbssI4
(dp1802
g1
(g14
g3
NtRp1803
(dp1804
S'h'
I2
sg17
I1
sg18
I4
sg19
g1
(g20
g3
NtRp1805
(dp1806
g23
I4
sg24
I3
sbsS'w'
I0
sbg1
(g2
g3
NtRp1807
(dp1808
g6
g1783
sg7
I81
sg8
L4041L
sg9
g10
(g11
tRp1809
sg19
g44
sg46
g47
(g48
(I0
tS'b'
tRp1810
(I1
(L4L
L3L
tg51
I00
S'\x01\x01\x01\x01\x01\x01\x00\x00\x01\x00\x00\x01'
tbsg52
I81
sbsg1
(g14
g3
NtRp1811
(dp1812
S'h'
I0
sg17
I2
sg18
I4
sg19
g1
(g20
g3
NtRp1813
(dp1814
g23
I4
sg24
I3
sbsS'w'
I0
sbg1
(g2
g3
NtRp1815
(dp1816
g6
g1783
sg7
I-244
sg8
L495L
sg9
g10
(g11
tRp1817
sg19
g44
sg46
g47
(g48
(I0
tS'b'
tRp1818
(I1
(L4L
L3L
tg51
I00
S'\x00\x00\x00\x01\x01\x01\x01\x00\x01\x01\x01\x01'
tbsg52
I-244
sbsssg19
g44
sg46
g47
(g48
(I0
tS'b'
tRp1819
(I1
(L4L
L3L
tg51
I00
S'\x00\x00\x00\x00\x01\x01\x00\x00\x01\x00\x00\x01'
tbsg52
I-124
sbsg1
(g14
g3
NtRp1820
(dp1821
S'h'
I0
sg17
I1
sg18
I4
sg19
g1
(g20
g3
NtRp1822
(dp1823
g23
I4
sg24
I3
sbsS'w'
I0
sbg1
(g2
g3
NtRp1824
(dp1825
g6
g4
sg7
I-81
sg8
L60L
sg9
g10
(g11
tRp1826
I1
(dp1827
g1
(g14
g3
NtRp1828
(dp1829
S'h'
I2
sg17
I0
sg18
I1
sg19
g1
(g20
g3
NtRp1830
(dp1831
g23
I4
sg24
I3
sbsS'w'
I0
sbg1
(g2
g3
NtRp1832
(dp1833
g6
g1824
sg7
I-90
sg8
L3516L
sg9
g10
(g11
tRp1834
sg19
g44
sg46
g47
(g48
(I0
tS'b'
tRp1835
(I1
(L4L
L3L
tg51
I00
S'\x01\x01\x00\x01\x01\x00\x01\x01\x01\x01\x00\x00'
tbsg52
I-90
sbsg1
(g14
g3
NtRp1836
(dp1837
S'h'
I2
sg17
I0
sg18
I1
sg19
g1
(g20
g3
NtRp1838
(dp1839
g23
I4
sg24
I3
sbsS'w'
I1
sbg1
(g2
g3
NtRp1840
(dp1841
g6
g1824
sg7
I-90
sg8
L1788L
sg9
g10
(g11
tRp1842
sg19
g44
sg46
g47
(g48
(I0
tS'b'
tRp1843
(I1
(L4L
L3L
tg51
I00
S'\x00\x01\x01\x00\x01\x01\x01\x01\x01\x01\x00\x00'
tbsg52
I-90
sbssI2
(dp1844
g1
(g14
g3
NtRp1845
(dp1846
S'h'
I2
sg17
I1
sg18
I2
sg19
g1
(g20
g3
NtRp1847
(dp1848
g23
I4
sg24
I3
sbsS'w'
I0
sbg1
(g2
g3
NtRp1849
(dp1850
g6
g1824
sg7
I-91
sg8
L1532L
sg9
g10
(g11
tRp1851
sg19
g44
sg46
g47
(g48
(I0
tS'b'
tRp1852
(I1
(L4L
L3L
tg51
I00
S'\x00\x01\x00\x01\x01\x01\x01\x01\x01\x01\x00\x00'
tbsg52
I-91
sbsg1
(g14
g3
NtRp1853
(dp1854
S'h'
I2
sg17
I3
sg18
I2
sg19
g1
(g20
g3
NtRp1855
(dp1856
g23
I4
sg24
I3
sbsS'w'
I0
sbg1
(g2
g3
NtRp1857
(dp1858
g6
g1824
sg7
I-93
sg8
L3772L
sg9
g10
(g11
tRp1859
sg19
g44
sg46
g47
(g48
(I0
tS'b'
tRp1860
(I1
(L4L
L3L
tg51
I00
S'\x01\x01\x01\x00\x01\x00\x01\x01\x01\x01\x00\x00'
tbsg52
I-93
sbssI3
(dp1861
g1
(g14
g3
NtRp1862
(dp1863
S'h'
I2
sg17
I1
sg18
I3
sg19
g1
(g20
g3
NtRp1864
(dp1865
g23
I4
sg24
I3
sbsS'w'
I0
sbg1
(g2
g3
NtRp1866
(dp1867
g6
g1824
sg7
I-81
sg8
L2556L
sg9
g10
(g11
tRp1868
sg19
g44
sg46
g47
(g48
(I0
tS'b'
tRp1869
(I1
(L4L
L3L
tg51
I00
S'\x01\x00\x00\x01\x01\x01\x01\x01\x01\x01\x00\x00'
tbsg52
I-81
sbsg1
(g14
g3
NtRp1870
(dp1871
S'h'
I2
sg17
I3
sg18
I3
sg19
g1
(g20
g3
NtRp1872
(dp1873
g23
I4
sg24
I3
sbsS'w'
I0
sbg1
(g2
g3
NtRp1874
(dp1875
g6
g1824
sg7
I-83
sg8
L3708L
sg9
g10
(g11
tRp1876
sg19
g44
sg46
g47
(g48
(I0
tS'b'
tRp1877
(I1
(L4L
L3L
tg51
I00
S'\x01\x01\x01\x00\x00\x01\x01\x01\x01\x01\x00\x00'
tbsg52
I-83
sbssI4
(dp1878
g1
(g14
g3
NtRp1879
(dp1880
S'h'
I2
sg17
I1
sg18
I4
sg19
g1
(g20
g3
NtRp1881
(dp1882
g23
I4
sg24
I3
sbsS'w'
I0
sbg1
(g2
g3
NtRp1883
(dp1884
g6
g1824
sg7
I-83
sg8
L3900L
sg9
g10
(g11
tRp1885
sg19
g44
sg46
g47
(g48
(I0
tS'b'
tRp1886
(I1
(L4L
L3L
tg51
I00
S'\x01\x01\x01\x01\x00\x00\x01\x01\x01\x01\x00\x00'
tbsg52
I-83
sbsg1
(g14
g3
NtRp1887
(dp1888
S'h'
I2
sg17
I3
sg18
I4
sg19
g1
(g20
g3
NtRp1889
(dp1890
g23
I4
sg24
I3
sbsS'w'
I0
sbg1
(g2
g3
NtRp1891
(dp1892
g6
g1824
sg7
I-81
sg8
L1020L
sg9
g10
(g11
tRp1893
sg19
g44
sg46
g47
(g48
(I0
tS'b'
tRp1894
(I1
(L4L
L3L
tg51
I00
S'\x00\x00\x01\x01\x01\x01\x01\x01\x01\x01\x00\x00'
tbsg52
I-81
sbssI5
(dp1895
g1
(g14
g3
NtRp1896
(dp1897
S'h'
I2
sg17
I1
sg18
I5
sg19
g1
(g20
g3
NtRp1898
(dp1899
g23
I4
sg24
I3
sbsS'w'
I0
sbg1
(g2
g3
NtRp1900
(dp1901
g6
g1824
sg7
I-92
sg8
L1980L
sg9
g10
(g11
tRp1902
sg19
g44
sg46
g47
(g48
(I0
tS'b'
tRp1903
(I1
(L4L
L3L
tg51
I00
S'\x00\x01\x01\x01\x01\x00\x01\x01\x01\x01\x00\x00'
tbsg52
I-92
sbssI6
(dp1904
g1
(g14
g3
NtRp1905
(dp1906
S'h'
I2
sg17
I1
sg18
I6
sg19
g1
(g20
g3
NtRp1907
(dp1908
g23
I4
sg24
I3
sbsS'w'
I0
sbg1
(g2
g3
NtRp1909
(dp1910
g6
g1824
sg7
I-92
sg8
L3324L
sg9
g10
(g11
tRp1911
sg19
g44
sg46
g47
(g48
(I0
tS'b'
tRp1912
(I1
(L4L
L3L
tg51
I00
S'\x01\x01\x00\x00\x01\x01\x01\x01\x01\x01\x00\x00'
tbsg52
I-92
sbsssg19
g44
sg46
g47
(g48
(I0
tS'b'
tRp1913
(I1
(L4L
L3L
tg51
I00
S'\x00\x00\x00\x00\x00\x00\x01\x01\x01\x01\x00\x00'
tbsg52
I-444
sbsg1
(g14
g3
NtRp1914
(dp1915
S'h'
I0
sg17
I2
sg18
I4
sg19
g1
(g20
g3
NtRp1916
(dp1917
g23
I4
sg24
I3
sbsS'w'
I0
sbg1
(g2
g3
NtRp1918
(dp1919
g6
g4
sg7
Finf
sg8
L294L
sg9
g10
(g11
tRp1920
I0
(dp1921
g1
(g14
g3
NtRp1922
(dp1923
S'h'
I0
sg17
I0
sg18
I0
sg19
g318
sS'w'
I2
sbg1
(g2
g3
NtRp1924
(dp1925
g6
g1918
sg7
Finf
sg8
L879L
sg9
g10
(g11
tRp1926
I4
(dp1927
g1
(g14
g3
NtRp1928
(dp1929
S'h'
I1
sg17
I0
sg18
I4
sg19
g326
sS'w'
I0
sbg1
(g2
g3
NtRp1930
(dp1931
g6
g1924
sg7
Finf
sg8
L4095L
sg9
g10
(g11
tRp1932
sg19
g44
sg46
g47
(g48
(I0
tS'b'
tRp1933
(I1
(L4L
L3L
tg51
I00
S'\x01\x01\x01\x01\x01\x01\x01\x01\x01\x01\x01\x01'
tbsg52
Finf
sbsssg19
g44
sg46
g47
(g48
(I0
tS'b'
tRp1934
(I1
(L4L
L3L
tg51
I00
S'\x00\x00\x01\x01\x00\x01\x01\x00\x01\x01\x01\x01'
tbsg52
I-235
sbssI1
(dp1935
g1
(g14
g3
NtRp1936
(dp1937
S'h'
I1
sg17
I0
sg18
I1
sg19
g1
(g20
g3
NtRp1938
(dp1939
g23
I4
sg24
I3
sbsS'w'
I1
sbg1
(g2
g3
NtRp1940
(dp1941
g6
g1918
sg7
I-170
sg8
L510L
sg9
g10
(g11
tRp1942
sg19
g44
sg46
g47
(g48
(I0
tS'b'
tRp1943
(I1
(L4L
L3L
tg51
I00
S'\x00\x00\x00\x01\x01\x01\x01\x01\x01\x01\x01\x00'
tbsg52
I-170
sbssI2
(dp1944
g1
(g14
g3
NtRp1945
(dp1946
S'h'
I2
sg17
I3
sg18
I2
sg19
g1
(g20
g3
NtRp1947
(dp1948
g23
I4
sg24
I3
sbsS'w'
I0
sbg1
(g2
g3
NtRp1949
(dp1950
g6
g1918
sg7
I-11
sg8
L4006L
sg9
g10
(g11
tRp1951
sg19
g44
sg46
g47
(g48
(I0
tS'b'
tRp1952
(I1
(L4L
L3L
tg51
I00
S'\x01\x01\x01\x01\x01\x00\x01\x00\x00\x01\x01\x00'
tbsg52
I-11
sbsg1
(g14
g3
NtRp1953
(dp1954
S'h'
I0
sg17
I2
sg18
I2
sg19
g1
(g20
g3
NtRp1955
(dp1956
g23
I4
sg24
I3
sbsS'w'
I1
sbg1
(g2
g3
NtRp1957
(dp1958
g6
g1918
sg7
Finf
sg8
L383L
sg9
g10
(g11
tRp1959
I2
(dp1960
g1
(g14
g3
NtRp1961
(dp1962
S'h'
I2
sg17
I3
sg18
I2
sg19
g1
(g20
g3
NtRp1963
(dp1964
g23
I4
sg24
I3
sbsS'w'
I0
sbg1
(g2
g3
NtRp1965
(dp1966
g6
g1957
sg7
Finf
sg8
L4095L
sg9
g10
(g11
tRp1967
sg19
g44
sg46
g47
(g48
(I0
tS'b'
tRp1968
(I1
(L4L
L3L
tg51
I00
S'\x01\x01\x01\x01\x01\x01\x01\x01\x01\x01\x01\x01'
tbsg52
Finf
sbsssg19
g44
sg46
g47
(g48
(I0
tS'b'
tRp1969
(I1
(L4L
L3L
tg51
I00
S'\x00\x00\x00\x01\x00\x01\x01\x01\x01\x01\x01\x01'
tbsg52
I-242
sbsg1
(g14
g3
NtRp1970
(dp1971
S'h'
I1
sg17
I0
sg18
I2
sg19
g1
(g20
g3
NtRp1972
(dp1973
g23
I4
sg24
I3
sbsS'w'
I1
sbg1
(g2
g3
NtRp1974
(dp1975
g6
g1918
sg7
I-101
sg8
L1526L
sg9
g10
(g11
tRp1976
sg19
g44
sg46
g47
(g48
(I0
tS'b'
tRp1977
(I1
(L4L
L3L
tg51
I00
S'\x00\x01\x00\x01\x01\x01\x01\x01\x00\x01\x01\x00'
tbsg52
I-101
sbssI3
(dp1978
g1
(g14
g3
NtRp1979
(dp1980
S'h'
I2
sg17
I3
sg18
I3
sg19
g1
(g20
g3
NtRp1981
(dp1982
g23
I4
sg24
I3
sbsS'w'
I0
sbg1
(g2
g3
NtRp1983
(dp1984
g6
g1918
sg7
I-83
sg8
L3942L
sg9
g10
(g11
tRp1985
sg19
g44
sg46
g47
(g48
(I0
tS'b'
tRp1986
(I1
(L4L
L3L
tg51
I00
S'\x01\x01\x01\x01\x00\x01\x01\x00\x00\x01\x01\x00'
tbsg52
I-83
sbsg1
(g14
g3
NtRp1987
(dp1988
S'h'
I1
sg17
I0
sg18
I3
sg19
g1
(g20
g3
NtRp1989
(dp1990
g23
I4
sg24
I3
sbsS'w'
I1
sbg1
(g2
g3
NtRp1991
(dp1992
g6
g1918
sg7
I-20
sg8
L1974L
sg9
g10
(g11
tRp1993
sg19
g44
sg46
g47
(g48
(I0
tS'b'
tRp1994
(I1
(L4L
L3L
tg51
I00
S'\x00\x01\x01\x01\x01\x00\x01\x01\x00\x01\x01\x00'
tbsg52
I-20
sbsg1
(g14
g3
NtRp1995
(dp1996
S'h'
I1
sg17
I2
sg18
I3
sg19
g1
(g20
g3
NtRp1997
(dp1998
g23
I4
sg24
I3
sbsS'w'
I1
sbg1
(g2
g3
NtRp1999
(dp2000
g6
g1918
sg7
I-163
sg8
L894L
sg9
g10
(g11
tRp2001
sg19
g44
sg46
g47
(g48
(I0
tS'b'
tRp2002
(I1
(L4L
L3L
tg51
I00
S'\x00\x00\x01\x01\x00\x01\x01\x01\x01\x01\x01\x00'
tbsg52
I-163
sbssI4
(dp2003
g1
(g14
g3
NtRp2004
(dp2005
S'h'
I0
sg17
I0
sg18
I4
sg19
g1813
sS'w'
I1
sbg1
(g2
g3
NtRp2006
(dp2007
g6
g1918
sg7
I-244
sg8
L495L
sg9
g10
(g11
tRp2008
sg19
g44
sg46
g47
(g48
(I0
tS'b'
tRp2009
(I1
(L4L
L3L
tg51
I00
S'\x00\x00\x00\x01\x01\x01\x01\x00\x01\x01\x01\x01'
tbsg52
I-244
sbsg1
(g14
g3
NtRp2010
(dp2011
S'h'
I1
sg17
I0
sg18
I4
sg19
g1
(g20
g3
NtRp2012
(dp2013
g23
I4
sg24
I3
sbsS'w'
I0
sbg1
(g2
g3
NtRp2014
(dp2015
g6
g1918
sg7
Finf
sg8
L3510L
sg9
g10
(g11
tRp2016
I0
(dp2017
g1
(g14
g3
NtRp2018
(dp2019
S'h'
I0
sg17
I0
sg18
I0
sg19
g326
sS'w'
I2
sbg1
(g2
g3
NtRp2020
(dp2021
g6
g2014
sg7
Finf
sg8
L4095L
sg9
g10
(g11
tRp2022
sg19
g44
sg46
g47
(g48
(I0
tS'b'
tRp2023
(I1
(L4L
L3L
tg51
I00
S'\x01\x01\x01\x01\x01\x01\x01\x01\x01\x01\x01\x01'
tbsg52
Finf
sbsssg19
g44
sg46
g47
(g48
(I0
tS'b'
tRp2024
(I1
(L4L
L3L
tg51
I00
S'\x01\x01\x00\x01\x01\x00\x01\x01\x00\x01\x01\x00'
tbsg52
I62
sbsg1
(g14
g3
NtRp2025
(dp2026
S'h'
I1
sg17
I2
sg18
I4
sg19
g1
(g20
g3
NtRp2027
(dp2028
g23
I4
sg24
I3
sbsS'w'
I1
sbg1
(g2
g3
NtRp2029
(dp2030
g6
g1918
sg7
I-181
sg8
L1470L
sg9
g10
(g11
tRp2031
sg19
g44
sg46
g47
(g48
(I0
tS'b'
tRp2032
(I1
(L4L
L3L
tg51
I00
S'\x00\x01\x00\x01\x01\x00\x01\x01\x01\x01\x01\x00'
tbsg52
I-181
sbssI5
(dp2033
g1
(g14
g3
NtRp2034
(dp2035
S'h'
I0
sg17
I0
sg18
I5
sg19
g1
(g20
g3
NtRp2036
(dp2037
g23
I4
sg24
I3
sbsS'w'
I1
sbg1
(g2
g3
NtRp2038
(dp2039
g6
g1918
sg7
Finf
sg8
L447L
sg9
g10
(g11
tRp2040
I3
(dp2041
g1
(g14
g3
NtRp2042
(dp2043
S'h'
I2
sg17
I3
sg18
I3
sg19
g1
(g20
g3
NtRp2044
(dp2045
g23
I4
sg24
I3
sbsS'w'
I0
sbg1
(g2
g3
NtRp2046
(dp2047
g6
g2038
sg7
Finf
sg8
L4095L
sg9
g10
(g11
tRp2048
sg19
g44
sg46
g47
(g48
(I0
tS'b'
tRp2049
(I1
(L4L
L3L
tg51
I00
S'\x01\x01\x01\x01\x01\x01\x01\x01\x01\x01\x01\x01'
tbsg52
Finf
sbsssg19
g44
sg46
g47
(g48
(I0
tS'b'
tRp2050
(I1
(L4L
L3L
tg51
I00
S'\x00\x00\x00\x01\x01\x00\x01\x01\x01\x01\x01\x01'
tbsg52
I-250
sbssI6
(dp2051
g1
(g14
g3
NtRp2052
(dp2053
S'h'
I2
sg17
I1
sg18
I6
sg19
g1
(g20
g3
NtRp2054
(dp2055
g23
I4
sg24
I3
sbsS'w'
I0
sbg1
(g2
g3
NtRp2056
(dp2057
g6
g1918
sg7
I-92
sg8
L3558L
sg9
g10
(g11
tRp2058
sg19
g44
sg46
g47
(g48
(I0
tS'b'
tRp2059
(I1
(L4L
L3L
tg51
I00
S'\x01\x01\x00\x01\x01\x01\x01\x00\x00\x01\x01\x00'
tbsg52
I-92
sbsg1
(g14
g3
NtRp2060
(dp2061
S'h'
I1
sg17
I0
sg18
I6
sg19
g1
(g20
g3
NtRp2062
(dp2063
g23
I4
sg24
I3
sbsS'w'
I1
sbg1
(g2
g3
NtRp2064
(dp2065
g6
g1918
sg7
I-91
sg8
L1014L
sg9
g10
(g11
tRp2066
sg19
g44
sg46
g47
(g48
(I0
tS'b'
tRp2067
(I1
(L4L
L3L
tg51
I00
S'\x00\x00\x01\x01\x01\x01\x01\x01\x00\x01\x01\x00'
tbsg52
I-91
sbsssg19
g44
sg46
g47
(g48
(I0
tS'b'
tRp2068
(I1
(L4L
L3L
tg51
I00
S'\x00\x00\x00\x01\x00\x00\x01\x00\x00\x01\x01\x00'
tbsg52
I-284
sbsg1
(g14
g3
NtRp2069
(dp2070
S'h'
I0
sg17
I2
sg18
I4
sg19
g1
(g20
g3
NtRp2071
(dp2072
g23
I4
sg24
I3
sbsS'w'
I1
sbg1
(g2
g3
NtRp2073
(dp2074
g6
g4
sg7
Finf
sg8
L147L
sg9
g10
(g11
tRp2075
I0
(dp2076
g1
(g14
g3
NtRp2077
(dp2078
S'h'
I0
sg17
I0
sg18
I0
sg19
g141
sS'w'
I0
sbg1
(g2
g3
NtRp2079
(dp2080
g6
g2073
sg7
Finf
sg8
L2487L
sg9
g10
(g11
tRp2081
I4
(dp2082
g1
(g14
g3
NtRp2083
(dp2084
S'h'
I1
sg17
I0
sg18
I4
sg19
g149
sS'w'
I1
sbg1
(g2
g3
NtRp2085
(dp2086
g6
g2079
sg7
Finf
sg8
L4095L
sg9
g10
(g11
tRp2087
sg19
g44
sg46
g47
(g48
(I0
tS'b'
tRp2088
(I1
(L4L
L3L
tg51
I00
S'\x01\x01\x01\x01\x01\x01\x01\x01\x01\x01\x01\x01'
tbsg52
Finf
sbsssg19
g44
sg46
g47
(g48
(I0
tS'b'
tRp2089
(I1
(L4L
L3L
tg51
I00
S'\x01\x00\x00\x01\x01\x00\x01\x01\x00\x01\x01\x01'
tbsg52
I-251
sbssI3
(dp2090
g1
(g14
g3
NtRp2091
(dp2092
S'h'
I2
sg17
I3
sg18
I3
sg19
g1
(g20
g3
NtRp2093
(dp2094
g23
I4
sg24
I3
sbsS'w'
I0
sbg1
(g2
g3
NtRp2095
(dp2096
g6
g2073
sg7
I-21
sg8
L3795L
sg9
g10
(g11
tRp2097
sg19
g44
sg46
g47
(g48
(I0
tS'b'
tRp2098
(I1
(L4L
L3L
tg51
I00
S'\x01\x01\x01\x00\x01\x01\x00\x01\x00\x00\x01\x01'
tbsg52
I-21
sbsg1
(g14
g3
NtRp2099
(dp2100
S'h'
I1
sg17
I0
sg18
I3
sg19
g1
(g20
g3
NtRp2101
(dp2102
g23
I4
sg24
I3
sbsS'w'
I0
sbg1
(g2
g3
NtRp2103
(dp2104
g6
g2073
sg7
I-180
sg8
L3507L
sg9
g10
(g11
tRp2105
sg19
g44
sg46
g47
(g48
(I0
tS'b'
tRp2106
(I1
(L4L
L3L
tg51
I00
S'\x01\x01\x00\x01\x01\x00\x01\x01\x00\x00\x01\x01'
tbsg52
I-180
sbssI4
(dp2107
g1
(g14
g3
NtRp2108
(dp2109
S'h'
I2
sg17
I1
sg18
I4
sg19
g1
(g20
g3
NtRp2110
(dp2111
g23
I4
sg24
I3
sbsS'w'
I0
sbg1
(g2
g3
NtRp2112
(dp2113
g6
g2073
sg7
I-101
sg8
L3987L
sg9
g10
(g11
tRp2114
sg19
g44
sg46
g47
(g48
(I0
tS'b'
tRp2115
(I1
(L4L
L3L
tg51
I00
S'\x01\x01\x01\x01\x01\x00\x00\x01\x00\x00\x01\x01'
tbsg52
I-101
sbsg1
(g14
g3
NtRp2116
(dp2117
S'h'
I1
sg17
I0
sg18
I4
sg19
g1
(g20
g3
NtRp2118
(dp2119
g23
I4
sg24
I3
sbsS'w'
I1
sbg1
(g2
g3
NtRp2120
(dp2121
g6
g2073
sg7
Finf
sg8
L1755L
sg9
g10
(g11
tRp2122
I0
(dp2123
g1
(g14
g3
NtRp2124
(dp2125
S'h'
I0
sg17
I0
sg18
I0
sg19
g149
sS'w'
I0
sbg1
(g2
g3
NtRp2126
(dp2127
g6
g2120
sg7
Finf
sg8
L4095L
sg9
g10
(g11
tRp2128
sg19
g44
sg46
g47
(g48
(I0
tS'b'
tRp2129
(I1
(L4L
L3L
tg51
I00
S'\x01\x01\x01\x01\x01\x01\x01\x01\x01\x01\x01\x01'
tbsg52
Finf
sbsssg19
g44
sg46
g47
(g48
(I0
tS'b'
tRp2130
(I1
(L4L
L3L
tg51
I00
S'\x00\x01\x01\x00\x01\x01\x00\x01\x01\x00\x01\x01'
tbsg52
I62
sbsssg19
g44
sg46
g47
(g48
(I0
tS'b'
tRp2131
(I1
(L4L
L3L
tg51
I00
S'\x00\x00\x00\x00\x01\x00\x00\x01\x00\x00\x01\x01'
tbsg52
I-304
sbsg1
(g14
g3
NtRp2132
(dp2133
S'h'
I0
sg17
I3
sg18
I4
sg19
g1
(g20
g3
NtRp2134
(dp2135
g23
I4
sg24
I3
sbsS'w'
I0
sbg1
(g2
g3
NtRp2136
(dp2137
g6
g4
sg7
Finf
sg8
L15L
sg9
g10
(g11
tRp2138
I1
(dp2139
g1
(g14
g3
NtRp2140
(dp2141
S'h'
I1
sg17
I0
sg18
I1
sg19
g1
(g20
g3
NtRp2142
(dp2143
g23
I4
sg24
I3
sbsS'w'
I0
sbg1
(g2
g3
NtRp2144
(dp2145
g6
g2136
sg7
Finf
sg8
L447L
sg9
g10
(g11
tRp2146
I3
(dp2147
g1
(g14
g3
NtRp2148
(dp2149
S'h'
I2
sg17
I3
sg18
I3
sg19
g1
(g20
g3
NtRp2150
(dp2151
g23
I4
sg24
I3
sbsS'w'
I0
sbg1
(g2
g3
NtRp2152
(dp2153
g6
g2144
sg7
Finf
sg8
L4095L
sg9
g10
(g11
tRp2154
sg19
g44
sg46
g47
(g48
(I0
tS'b'
tRp2155
(I1
(L4L
L3L
tg51
I00
S'\x01\x01\x01\x01\x01\x01\x01\x01\x01\x01\x01\x01'
tbsg52
Finf
sbsssg19
g44
sg46
g47
(g48
(I0
tS'b'
tRp2156
(I1
(L4L
L3L
tg51
I00
S'\x00\x00\x00\x01\x01\x00\x01\x01\x01\x01\x01\x01'
tbsg52
I-250
sbsg1
(g14
g3
NtRp2157
(dp2158
S'h'
I2
sg17
I0
sg18
I1
sg19
g1
(g20
g3
NtRp2159
(dp2160
g23
I4
sg24
I3
sbsS'w'
I1
sbg1
(g2
g3
NtRp2161
(dp2162
g6
g2136
sg7
I-252
sg8
L1743L
sg9
g10
(g11
tRp2163
sg19
g44
sg46
g47
(g48
(I0
tS'b'
tRp2164
(I1
(L4L
L3L
tg51
I00
S'\x00\x01\x01\x00\x01\x01\x00\x00\x01\x01\x01\x01'
tbsg52
I-252
sbssI2
(dp2165
g1
(g14
g3
NtRp2166
(dp2167
S'h'
I2
sg17
I1
sg18
I2
sg19
g1
(g20
g3
NtRp2168
(dp2169
g23
I4
sg24
I3
sbsS'w'
I0
sbg1
(g2
g3
NtRp2170
(dp2171
g6
g2136
sg7
I-255
sg8
L1487L
sg9
g10
(g11
tRp2172
sg19
g44
sg46
g47
(g48
(I0
tS'b'
tRp2173
(I1
(L4L
L3L
tg51
I00
S'\x00\x01\x00\x01\x01\x01\x00\x00\x01\x01\x01\x01'
tbsg52
I-255
sbsg1
(g14
g3
NtRp2174
(dp2175
S'h'
I1
sg17
I0
sg18
I2
sg19
g1
(g20
g3
NtRp2176
(dp2177
g23
I4
sg24
I3
sbsS'w'
I0
sbg1
(g2
g3
NtRp2178
(dp2179
g6
g2136
sg7
I-245
sg8
L2479L
sg9
g10
(g11
tRp2180
sg19
g44
sg46
g47
(g48
(I0
tS'b'
tRp2181
(I1
(L4L
L3L
tg51
I00
S'\x01\x00\x00\x01\x01\x00\x01\x00\x01\x01\x01\x01'
tbsg52
I-245
sbsg1
(g14
g3
NtRp2182
(dp2183
S'h'
I1
sg17
I0
sg18
I2
sg19
g1
(g20
g3
NtRp2184
(dp2185
g23
I4
sg24
I3
sbsS'w'
I1
sbg1
(g2
g3
NtRp2186
(dp2187
g6
g2136
sg7
I-261
sg8
L1247L
sg9
g10
(g11
tRp2188
sg19
g44
sg46
g47
(g48
(I0
tS'b'
tRp2189
(I1
(L4L
L3L
tg51
I00
S'\x00\x01\x00\x00\x01\x01\x00\x01\x01\x01\x01\x01'
tbsg52
I-261
sbsg1
(g14
g3
NtRp2190
(dp2191
S'h'
I1
sg17
I2
sg18
I2
sg19
g1
(g20
g3
NtRp2192
(dp2193
g23
I4
sg24
I3
sbsS'w'
I0
sbg1
(g2
g3
NtRp2194
(dp2195
g6
g2136
sg7
I-263
sg8
L1439L
sg9
g10
(g11
tRp2196
sg19
g44
sg46
g47
(g48
(I0
tS'b'
tRp2197
(I1
(L4L
L3L
tg51
I00
S'\x00\x01\x00\x01\x01\x00\x00\x01\x01\x01\x01\x01'
tbsg52
I-263
sbsg1
(g14
g3
NtRp2198
(dp2199
S'h'
I1
sg17
I3
sg18
I2
sg19
g1
(g20
g3
NtRp2200
(dp2201
g23
I4
sg24
I3
sbsS'w'
I0
sbg1
(g2
g3
NtRp2202
(dp2203
g6
g2136
sg7
I-252
sg8
L479L
sg9
g10
(g11
tRp2204
sg19
g44
sg46
g47
(g48
(I0
tS'b'
tRp2205
(I1
(L4L
L3L
tg51
I00
S'\x00\x00\x00\x01\x01\x01\x00\x01\x01\x01\x01\x01'
tbsg52
I-252
sbssI3
(dp2206
g1
(g14
g3
NtRp2207
(dp2208
S'h'
I2
sg17
I1
sg18
I3
sg19
g1
(g20
g3
NtRp2209
(dp2210
g23
I4
sg24
I3
sbsS'w'
I0
sbg1
(g2
g3
NtRp2211
(dp2212
g6
g2136
sg7
I-245
sg8
L2511L
sg9
g10
(g11
tRp2213
sg19
g44
sg46
g47
(g48
(I0
tS'b'
tRp2214
(I1
(L4L
L3L
tg51
I00
S'\x01\x00\x00\x01\x01\x01\x00\x00\x01\x01\x01\x01'
tbsg52
I-245
sbsg1
(g14
g3
NtRp2215
(dp2216
S'h'
I2
sg17
I3
sg18
I3
sg19
g1
(g20
g3
NtRp2217
(dp2218
g23
I4
sg24
I3
sbsS'w'
I0
sbg1
(g2
g3
NtRp2219
(dp2220
g6
g2136
sg7
I-243
sg8
L3663L
sg9
g10
(g11
tRp2221
sg19
g44
sg46
g47
(g48
(I0
tS'b'
tRp2222
(I1
(L4L
L3L
tg51
I00
S'\x01\x01\x01\x00\x00\x01\x00\x00\x01\x01\x01\x01'
tbsg52
I-243
sbsg1
(g14
g3
NtRp2223
(dp2224
S'h'
I1
sg17
I0
sg18
I3
sg19
g1
(g20
g3
NtRp2225
(dp2226
g23
I4
sg24
I3
sbsS'w'
I0
sbg1
(g2
g3
NtRp2227
(dp2228
g6
g2136
sg7
I-244
sg8
L3375L
sg9
g10
(g11
tRp2229
sg19
g44
sg46
g47
(g48
(I0
tS'b'
tRp2230
(I1
(L4L
L3L
tg51
I00
S'\x01\x01\x00\x01\x00\x00\x01\x00\x01\x01\x01\x01'
tbsg52
I-244
sbsg1
(g14
g3
NtRp2231
(dp2232
S'h'
I1
sg17
I0
sg18
I3
sg19
g1
(g20
g3
NtRp2233
(dp2234
g23
I4
sg24
I3
sbsS'w'
I1
sbg1
(g2
g3
NtRp2235
(dp2236
g6
g2136
sg7
I-262
sg8
L1695L
sg9
g10
(g11
tRp2237
sg19
g44
sg46
g47
(g48
(I0
tS'b'
tRp2238
(I1
(L4L
L3L
tg51
I00
S'\x00\x01\x01\x00\x01\x00\x00\x01\x01\x01\x01\x01'
tbsg52
I-262
sbsg1
(g14
g3
NtRp2239
(dp2240
S'h'
I1
sg17
I2
sg18
I3
sg19
g1
(g20
g3
NtRp2241
(dp2242
g23
I4
sg24
I3
sbsS'w'
I0
sbg1
(g2
g3
NtRp2243
(dp2244
g6
g2136
sg7
I-261
sg8
L1215L
sg9
g10
(g11
tRp2245
sg19
g44
sg46
g47
(g48
(I0
tS'b'
tRp2246
(I1
(L4L
L3L
tg51
I00
S'\x00\x01\x00\x00\x01\x00\x01\x01\x01\x01\x01\x01'
tbsg52
I-261
sbssI4
(dp2247
g1
(g14
g3
NtRp2248
(dp2249
S'h'
I2
sg17
I3
sg18
I4
sg19
g1
(g20
g3
NtRp2250
(dp2251
g23
I4
sg24
I3
sbsS'w'
I0
sbg1
(g2
g3
NtRp2252
(dp2253
g6
g2136
sg7
I-245
sg8
L975L
sg9
g10
(g11
tRp2254
sg19
g44
sg46
g47
(g48
(I0
tS'b'
tRp2255
(I1
(L4L
L3L
tg51
I00
S'\x00\x00\x01\x01\x01\x01\x00\x00\x01\x01\x01\x01'
tbsg52
I-245
sbsg1
(g14
g3
NtRp2256
(dp2257
S'h'
I1
sg17
I0
sg18
I4
sg19
g1
(g20
g3
NtRp2258
(dp2259
g23
I4
sg24
I3
sbsS'w'
I0
sbg1
(g2
g3
NtRp2260
(dp2261
g6
g2136
sg7
I-262
sg8
L3231L
sg9
g10
(g11
tRp2262
sg19
g44
sg46
g47
(g48
(I0
tS'b'
tRp2263
(I1
(L4L
L3L
tg51
I00
S'\x01\x01\x00\x00\x01\x00\x00\x01\x01\x01\x01\x01'
tbsg52
I-262
sbsg1
(g14
g3
NtRp2264
(dp2265
S'h'
I1
sg17
I2
sg18
I4
sg19
g1
(g20
g3
NtRp2266
(dp2267
g23
I4
sg24
I3
sbsS'w'
I0
sbg1
(g2
g3
NtRp2268
(dp2269
g6
g2136
sg7
Finf
sg8
L2367L
sg9
g10
(g11
tRp2270
I1
(dp2271
g1
(g14
g3
NtRp2272
(dp2273
S'h'
I2
sg17
I0
sg18
I1
sg19
g1
(g20
g3
NtRp2274
(dp2275
g23
I4
sg24
I3
sbsS'w'
I1
sbg1
(g2
g3
NtRp2276
(dp2277
g6
g2268
sg7
Finf
sg8
L4095L
sg9
g10
(g11
tRp2278
sg19
g44
sg46
g47
(g48
(I0
tS'b'
tRp2279
(I1
(L4L
L3L
tg51
I00
S'\x01\x01\x01\x01\x01\x01\x01\x01\x01\x01\x01\x01'
tbsg52
Finf
sbsssg19
g44
sg46
g47
(g48
(I0
tS'b'
tRp2280
(I1
(L4L
L3L
tg51
I00
S'\x01\x00\x00\x01\x00\x00\x01\x01\x01\x01\x01\x01'
tbsg52
I-241
sbsg1
(g14
g3
NtRp2281
(dp2282
S'h'
I1
sg17
I1
sg18
I4
sg19
g1
(g20
g3
NtRp2283
(dp2284
g23
I4
sg24
I3
sbsS'w'
I0
sbg1
(g2
g3
NtRp2285
(dp2286
g6
g2136
sg7
I-244
sg8
L495L
sg9
g10
(g11
tRp2287
sg19
g44
sg46
g47
(g48
(I0
tS'b'
tRp2288
(I1
(L4L
L3L
tg51
I00
S'\x00\x00\x00\x01\x01\x01\x01\x00\x01\x01\x01\x01'
tbsg52
I-244
sbssI5
(dp2289
g1
(g14
g3
NtRp2290
(dp2291
S'h'
I1
sg17
I0
sg18
I5
sg19
g1
(g20
g3
NtRp2292
(dp2293
g23
I4
sg24
I3
sbsS'w'
I0
sbg1
(g2
g3
NtRp2294
(dp2295
g6
g2136
sg7
I-253
sg8
L2463L
sg9
g10
(g11
tRp2296
sg19
g44
sg46
g47
(g48
(I0
tS'b'
tRp2297
(I1
(L4L
L3L
tg51
I00
S'\x01\x00\x00\x01\x01\x00\x00\x01\x01\x01\x01\x01'
tbsg52
I-253
sbsg1
(g14
g3
NtRp2298
(dp2299
S'h'
I1
sg17
I1
sg18
I5
sg19
g1
(g20
g3
NtRp2300
(dp2301
g23
I4
sg24
I3
sbsS'w'
I0
sbg1
(g2
g3
NtRp2302
(dp2303
g6
g2136
sg7
Finf
sg8
L255L
sg9
g10
(g11
tRp2304
I4
(dp2305
g1
(g14
g3
NtRp2306
(dp2307
S'h'
I2
sg17
I1
sg18
I4
sg19
g1
(g20
g3
NtRp2308
(dp2309
g23
I4
sg24
I3
sbsS'w'
I0
sbg1
(g2
g3
NtRp2310
(dp2311
g6
g2302
sg7
Finf
sg8
L4095L
sg9
g10
(g11
tRp2312
sg19
g44
sg46
g47
(g48
(I0
tS'b'
tRp2313
(I1
(L4L
L3L
tg51
I00
S'\x01\x01\x01\x01\x01\x01\x01\x01\x01\x01\x01\x01'
tbsg52
Finf
sbsssg19
g44
sg46
g47
(g48
(I0
tS'b'
tRp2314
(I1
(L4L
L3L
tg51
I00
S'\x00\x00\x00\x00\x01\x01\x01\x01\x01\x01\x01\x01'
tbsg52
I-250
sbssI6
(dp2315
g1
(g14
g3
NtRp2316
(dp2317
S'h'
I2
sg17
I1
sg18
I6
sg19
g1
(g20
g3
NtRp2318
(dp2319
g23
I4
sg24
I3
sbsS'w'
I0
sbg1
(g2
g3
NtRp2320
(dp2321
g6
g2136
sg7
I-254
sg8
L3279L
sg9
g10
(g11
tRp2322
sg19
g44
sg46
g47
(g48
(I0
tS'b'
tRp2323
(I1
(L4L
L3L
tg51
I00
S'\x01\x01\x00\x00\x01\x01\x00\x00\x01\x01\x01\x01'
tbsg52
I-254
sbsg1
(g14
g3
NtRp2324
(dp2325
S'h'
I1
sg17
I0
sg18
I6
sg19
g1
(g20
g3
NtRp2326
(dp2327
g23
I4
sg24
I3
sbsS'w'
I0
sbg1
(g2
g3
NtRp2328
(dp2329
g6
g2136
sg7
I-255
sg8
L1455L
sg9
g10
(g11
tRp2330
sg19
g44
sg46
g47
(g48
(I0
tS'b'
tRp2331
(I1
(L4L
L3L
tg51
I00
S'\x00\x01\x00\x01\x01\x00\x01\x00\x01\x01\x01\x01'
tbsg52
I-255
sbsg1
(g14
g3
NtRp2332
(dp2333
S'h'
I1
sg17
I0
sg18
I6
sg19
g1
(g20
g3
NtRp2334
(dp2335
g23
I4
sg24
I3
sbsS'w'
I1
sbg1
(g2
g3
NtRp2336
(dp2337
g6
g2136
sg7
Finf
sg8
L735L
sg9
g10
(g11
tRp2338
I3
(dp2339
g1
(g14
g3
NtRp2340
(dp2341
S'h'
I1
sg17
I0
sg18
I3
sg19
g1
(g20
g3
NtRp2342
(dp2343
g23
I4
sg24
I3
sbsS'w'
I0
sbg1
(g2
g3
NtRp2344
(dp2345
g6
g2336
sg7
Finf
sg8
L4095L
sg9
g10
(g11
tRp2346
sg19
g44
sg46
g47
(g48
(I0
tS'b'
tRp2347
(I1
(L4L
L3L
tg51
I00
S'\x01\x01\x01\x01\x01\x01\x01\x01\x01\x01\x01\x01'
tbsg52
Finf
sbsssg19
g44
sg46
g47
(g48
(I0
tS'b'
tRp2348
(I1
(L4L
L3L
tg51
I00
S'\x00\x00\x01\x00\x01\x01\x00\x01\x01\x01\x01\x01'
tbsg52
I-251
sbsssg19
g44
sg46
g47
(g48
(I0
tS'b'
tRp2349
(I1
(L4L
L3L
tg51
I00
S'\x00\x00\x00\x00\x00\x00\x00\x00\x01\x01\x01\x01'
tbsg52
I-604
sbssI5
(dp2350
g1
(g14
g3
NtRp2351
(dp2352
S'h'
I0
sg17
I0
sg18
I5
sg19
g1
(g20
g3
NtRp2353
(dp2354
g23
I4
sg24
I3
sbsS'w'
I0
sbg1
(g2
g3
NtRp2355
(dp2356
g6
g4
sg7
I61
sg8
L306L
sg9
g10
(g11
tRp2357
I0
(dp2358
g1
(g14
g3
NtRp2359
(dp2360
S'h'
I0
sg17
I0
sg18
I0
sg19
g336
sS'w'
I2
sbg1
(g2
g3
NtRp2361
(dp2362
g6
g2355
sg7
I-163
sg8
L891L
sg9
g10
(g11
tRp2363
sg19
g44
sg46
g47
(g48
(I0
tS'b'
tRp2364
(I1
(L4L
L3L
tg51
I00
S'\x00\x00\x01\x01\x00\x01\x01\x01\x01\x00\x01\x01'
tbsg52
I-163
sbssI1
(dp2365
g1
(g14
g3
NtRp2366
(dp2367
S'h'
I2
sg17
I0
sg18
I1
sg19
g1
(g20
g3
NtRp2368
(dp2369
g23
I4
sg24
I3
sbsS'w'
I1
sbg1
(g2
g3
NtRp2370
(dp2371
g6
g2355
sg7
I-20
sg8
L2034L
sg9
g10
(g11
tRp2372
sg19
g44
sg46
g47
(g48
(I0
tS'b'
tRp2373
(I1
(L4L
L3L
tg51
I00
S'\x00\x01\x01\x01\x01\x01\x01\x01\x00\x00\x01\x00'
tbsg52
I-20
sbssI2
(dp2374
g1
(g14
g3
NtRp2375
(dp2376
S'h'
I2
sg17
I3
sg18
I2
sg19
g1
(g20
g3
NtRp2377
(dp2378
g23
I4
sg24
I3
sbsS'w'
I0
sbg1
(g2
g3
NtRp2379
(dp2380
g6
g2355
sg7
I61
sg8
L4018L
sg9
g10
(g11
tRp2381
sg19
g44
sg46
g47
(g48
(I0
tS'b'
tRp2382
(I1
(L4L
L3L
tg51
I00
S'\x01\x01\x01\x01\x01\x00\x01\x01\x00\x00\x01\x00'
tbsg52
I61
sbsg1
(g14
g3
NtRp2383
(dp2384
S'h'
I1
sg17
I2
sg18
I2
sg19
g1
(g20
g3
NtRp2385
(dp2386
g23
I4
sg24
I3
sbsS'w'
I1
sbg1
(g2
g3
NtRp2387
(dp2388
g6
g2355
sg7
I-91
sg8
L1018L
sg9
g10
(g11
tRp2389
sg19
g44
sg46
g47
(g48
(I0
tS'b'
tRp2390
(I1
(L4L
L3L
tg51
I00
S'\x00\x00\x01\x01\x01\x01\x01\x01\x01\x00\x01\x00'
tbsg52
I-91
sbssI3
(dp2391
g1
(g14
g3
NtRp2392
(dp2393
S'h'
I2
sg17
I3
sg18
I3
sg19
g1
(g20
g3
NtRp2394
(dp2395
g23
I4
sg24
I3
sbsS'w'
I0
sbg1
(g2
g3
NtRp2396
(dp2397
g6
g2355
sg7
I-13
sg8
L3954L
sg9
g10
(g11
tRp2398
sg19
g44
sg46
g47
(g48
(I0
tS'b'
tRp2399
(I1
(L4L
L3L
tg51
I00
S'\x01\x01\x01\x01\x00\x01\x01\x01\x00\x00\x01\x00'
tbsg52
I-13
sbssI4
(dp2400
g1
(g14
g3
NtRp2401
(dp2402
S'h'
I0
sg17
I0
sg18
I4
sg19
g1
(g20
g3
NtRp2403
(dp2404
g23
I4
sg24
I3
sbsS'w'
I1
sbg1
(g2
g3
NtRp2405
(dp2406
g6
g2355
sg7
I-170
sg8
L507L
sg9
g10
(g11
tRp2407
sg19
g44
sg46
g47
(g48
(I0
tS'b'
tRp2408
(I1
(L4L
L3L
tg51
I00
S'\x00\x00\x00\x01\x01\x01\x01\x01\x01\x00\x01\x01'
tbsg52
I-170
sbssI5
(dp2409
g1
(g14
g3
NtRp2410
(dp2411
S'h'
I1
sg17
I0
sg18
I5
sg19
g1
(g20
g3
NtRp2412
(dp2413
g23
I4
sg24
I3
sbsS'w'
I1
sbg1
(g2
g3
NtRp2414
(dp2415
g6
g2355
sg7
I-101
sg8
L1530L
sg9
g10
(g11
tRp2416
sg19
g44
sg46
g47
(g48
(I0
tS'b'
tRp2417
(I1
(L4L
L3L
tg51
I00
S'\x00\x01\x00\x01\x01\x01\x01\x01\x01\x00\x01\x00'
tbsg52
I-101
sbssI6
(dp2418
g1
(g14
g3
NtRp2419
(dp2420
S'h'
I2
sg17
I1
sg18
I6
sg19
g1
(g20
g3
NtRp2421
(dp2422
g23
I4
sg24
I3
sbsS'w'
I0
sbg1
(g2
g3
NtRp2423
(dp2424
g6
g2355
sg7
I-20
sg8
L3570L
sg9
g10
(g11
tRp2425
sg19
g44
sg46
g47
(g48
(I0
tS'b'
tRp2426
(I1
(L4L
L3L
tg51
I00
S'\x01\x01\x00\x01\x01\x01\x01\x01\x00\x00\x01\x00'
tbsg52
I-20
sbsssg19
g44
sg46
g47
(g48
(I0
tS'b'
tRp2427
(I1
(L4L
L3L
tg51
I00
S'\x00\x00\x00\x01\x00\x00\x01\x01\x00\x00\x01\x00'
tbsg52
I-214
sbsg1
(g14
g3
NtRp2428
(dp2429
S'h'
I0
sg17
I0
sg18
I5
sg19
g1
(g20
g3
NtRp2430
(dp2431
g23
I4
sg24
I3
sbsS'w'
I1
sbg1
(g2
g3
NtRp2432
(dp2433
g6
g4
sg7
I71
sg8
L153L
sg9
g10
(g11
tRp2434
I0
(dp2435
g1
(g14
g3
NtRp2436
(dp2437
S'h'
I0
sg17
I0
sg18
I0
sg19
g159
sS'w'
I0
sbg1
(g2
g3
NtRp2438
(dp2439
g6
g2432
sg7
I-163
sg8
L2493L
sg9
g10
(g11
tRp2440
sg19
g44
sg46
g47
(g48
(I0
tS'b'
tRp2441
(I1
(L4L
L3L
tg51
I00
S'\x01\x00\x00\x01\x01\x00\x01\x01\x01\x01\x00\x01'
tbsg52
I-163
sbssI3
(dp2442
g1
(g14
g3
NtRp2443
(dp2444
S'h'
I2
sg17
I3
sg18
I3
sg19
g1
(g20
g3
NtRp2445
(dp2446
g23
I4
sg24
I3
sbsS'w'
I0
sbg1
(g2
g3
NtRp2447
(dp2448
g6
g2432
sg7
I71
sg8
L3801L
sg9
g10
(g11
tRp2449
sg19
g44
sg46
g47
(g48
(I0
tS'b'
tRp2450
(I1
(L4L
L3L
tg51
I00
S'\x01\x01\x01\x00\x01\x01\x00\x01\x01\x00\x00\x01'
tbsg52
I71
sbsg1
(g14
g3
NtRp2451
(dp2452
S'h'
I1
sg17
I0
sg18
I3
sg19
g1
(g20
g3
NtRp2453
(dp2454
g23
I4
sg24
I3
sbsS'w'
I0
sbg1
(g2
g3
NtRp2455
(dp2456
g6
g2432
sg7
I-90
sg8
L3513L
sg9
g10
(g11
tRp2457
sg19
g44
sg46
g47
(g48
(I0
tS'b'
tRp2458
(I1
(L4L
L3L
tg51
I00
S'\x01\x01\x00\x01\x01\x00\x01\x01\x01\x00\x00\x01'
tbsg52
I-90
sbssI4
(dp2459
g1
(g14
g3
NtRp2460
(dp2461
S'h'
I2
sg17
I1
sg18
I4
sg19
g1
(g20
g3
NtRp2462
(dp2463
g23
I4
sg24
I3
sbsS'w'
I0
sbg1
(g2
g3
NtRp2464
(dp2465
g6
g2432
sg7
I-11
sg8
L3993L
sg9
g10
(g11
tRp2466
sg19
g44
sg46
g47
(g48
(I0
tS'b'
tRp2467
(I1
(L4L
L3L
tg51
I00
S'\x01\x01\x01\x01\x01\x00\x00\x01\x01\x00\x00\x01'
tbsg52
I-11
sbsssg19
g44
sg46
g47
(g48
(I0
tS'b'
tRp2468
(I1
(L4L
L3L
tg51
I00
S'\x00\x00\x00\x00\x01\x00\x00\x01\x01\x00\x00\x01'
tbsg52
I-214
sbsg1
(g14
g3
NtRp2469
(dp2470
S'h'
I0
sg17
I1
sg18
I5
sg19
g1
(g20
g3
NtRp2471
(dp2472
g23
I4
sg24
I3
sbsS'w'
I0
sbg1
(g2
g3
NtRp2473
(dp2474
g6
g4
sg7
I-170
sg8
L30L
sg9
g10
(g11
tRp2475
I1
(dp2476
g1
(g14
g3
NtRp2477
(dp2478
S'h'
I2
sg17
I0
sg18
I1
sg19
g1
(g20
g3
NtRp2479
(dp2480
g23
I4
sg24
I3
sbsS'w'
I0
sbg1
(g2
g3
NtRp2481
(dp2482
g6
g2473
sg7
I-182
sg8
L3486L
sg9
g10
(g11
tRp2483
sg19
g44
sg46
g47
(g48
(I0
tS'b'
tRp2484
(I1
(L4L
L3L
tg51
I00
S'\x01\x01\x00\x01\x01\x00\x00\x01\x01\x01\x01\x00'
tbsg52
I-182
sbsg1
(g14
g3
NtRp2485
(dp2486
S'h'
I2
sg17
I0
sg18
I1
sg19
g1
(g20
g3
NtRp2487
(dp2488
g23
I4
sg24
I3
sbsS'w'
I1
sbg1
(g2
g3
NtRp2489
(dp2490
g6
g2473
sg7
I-180
sg8
L1758L
sg9
g10
(g11
tRp2491
sg19
g44
sg46
g47
(g48
(I0
tS'b'
tRp2492
(I1
(L4L
L3L
tg51
I00
S'\x00\x01\x01\x00\x01\x01\x00\x01\x01\x01\x01\x00'
tbsg52
I-180
sbssI2
(dp2493
g1
(g14
g3
NtRp2494
(dp2495
S'h'
I2
sg17
I1
sg18
I2
sg19
g1
(g20
g3
NtRp2496
(dp2497
g23
I4
sg24
I3
sbsS'w'
I0
sbg1
(g2
g3
NtRp2498
(dp2499
g6
g2473
sg7
I-183
sg8
L1502L
sg9
g10
(g11
tRp2500
sg19
g44
sg46
g47
(g48
(I0
tS'b'
tRp2501
(I1
(L4L
L3L
tg51
I00
S'\x00\x01\x00\x01\x01\x01\x00\x01\x01\x01\x01\x00'
tbsg52
I-183
sbsg1
(g14
g3
NtRp2502
(dp2503
S'h'
I2
sg17
I3
sg18
I2
sg19
g1
(g20
g3
NtRp2504
(dp2505
g23
I4
sg24
I3
sbsS'w'
I0
sbg1
(g2
g3
NtRp2506
(dp2507
g6
g2473
sg7
I-183
sg8
L3742L
sg9
g10
(g11
tRp2508
sg19
g44
sg46
g47
(g48
(I0
tS'b'
tRp2509
(I1
(L4L
L3L
tg51
I00
S'\x01\x01\x01\x00\x01\x00\x00\x01\x01\x01\x01\x00'
tbsg52
I-183
sbsg1
(g14
g3
NtRp2510
(dp2511
S'h'
I1
sg17
I0
sg18
I2
sg19
g1
(g20
g3
NtRp2512
(dp2513
g23
I4
sg24
I3
sbsS'w'
I0
sbg1
(g2
g3
NtRp2514
(dp2515
g6
g2473
sg7
I-171
sg8
L2494L
sg9
g10
(g11
tRp2516
sg19
g44
sg46
g47
(g48
(I0
tS'b'
tRp2517
(I1
(L4L
L3L
tg51
I00
S'\x01\x00\x00\x01\x01\x00\x01\x01\x01\x01\x01\x00'
tbsg52
I-171
sbssI3
(dp2518
g1
(g14
g3
NtRp2519
(dp2520
S'h'
I2
sg17
I1
sg18
I3
sg19
g1
(g20
g3
NtRp2521
(dp2522
g23
I4
sg24
I3
sbsS'w'
I0
sbg1
(g2
g3
NtRp2523
(dp2524
g6
g2473
sg7
I-173
sg8
L2526L
sg9
g10
(g11
tRp2525
sg19
g44
sg46
g47
(g48
(I0
tS'b'
tRp2526
(I1
(L4L
L3L
tg51
I00
S'\x01\x00\x00\x01\x01\x01\x00\x01\x01\x01\x01\x00'
tbsg52
I-173
sbsg1
(g14
g3
NtRp2527
(dp2528
S'h'
I2
sg17
I3
sg18
I3
sg19
g1
(g20
g3
NtRp2529
(dp2530
g23
I4
sg24
I3
sbsS'w'
I0
sbg1
(g2
g3
NtRp2531
(dp2532
g6
g2473
sg7
I-173
sg8
L3678L
sg9
g10
(g11
tRp2533
sg19
g44
sg46
g47
(g48
(I0
tS'b'
tRp2534
(I1
(L4L
L3L
tg51
I00
S'\x01\x01\x01\x00\x00\x01\x00\x01\x01\x01\x01\x00'
tbsg52
I-173
sbsg1
(g14
g3
NtRp2535
(dp2536
S'h'
I1
sg17
I0
sg18
I3
sg19
g1
(g20
g3
NtRp2537
(dp2538
g23
I4
sg24
I3
sbsS'w'
I0
sbg1
(g2
g3
NtRp2539
(dp2540
g6
g2473
sg7
I-172
sg8
L3390L
sg9
g10
(g11
tRp2541
sg19
g44
sg46
g47
(g48
(I0
tS'b'
tRp2542
(I1
(L4L
L3L
tg51
I00
S'\x01\x01\x00\x01\x00\x00\x01\x01\x01\x01\x01\x00'
tbsg52
I-172
sbssI4
(dp2543
g1
(g14
g3
NtRp2544
(dp2545
S'h'
I2
sg17
I3
sg18
I4
sg19
g1
(g20
g3
NtRp2546
(dp2547
g23
I4
sg24
I3
sbsS'w'
I0
sbg1
(g2
g3
NtRp2548
(dp2549
g6
g2473
sg7
I-173
sg8
L990L
sg9
g10
(g11
tRp2550
sg19
g44
sg46
g47
(g48
(I0
tS'b'
tRp2551
(I1
(L4L
L3L
tg51
I00
S'\x00\x00\x01\x01\x01\x01\x00\x01\x01\x01\x01\x00'
tbsg52
I-173
sbsg1
(g14
g3
NtRp2552
(dp2553
S'h'
I1
sg17
I1
sg18
I4
sg19
g1
(g20
g3
NtRp2554
(dp2555
g23
I4
sg24
I3
sbsS'w'
I0
sbg1
(g2
g3
NtRp2556
(dp2557
g6
g2473
sg7
I-170
sg8
L510L
sg9
g10
(g11
tRp2558
sg19
g44
sg46
g47
(g48
(I0
tS'b'
tRp2559
(I1
(L4L
L3L
tg51
I00
S'\x00\x00\x00\x01\x01\x01\x01\x01\x01\x01\x01\x00'
tbsg52
I-170
sbssI5
(dp2560
g1
(g14
g3
NtRp2561
(dp2562
S'h'
I2
sg17
I1
sg18
I5
sg19
g1
(g20
g3
NtRp2563
(dp2564
g23
I4
sg24
I3
sbsS'w'
I0
sbg1
(g2
g3
NtRp2565
(dp2566
g6
g2473
sg7
I-184
sg8
L1950L
sg9
g10
(g11
tRp2567
sg19
g44
sg46
g47
(g48
(I0
tS'b'
tRp2568
(I1
(L4L
L3L
tg51
I00
S'\x00\x01\x01\x01\x01\x00\x00\x01\x01\x01\x01\x00'
tbsg52
I-184
sbssI6
(dp2569
g1
(g14
g3
NtRp2570
(dp2571
S'h'
I2
sg17
I1
sg18
I6
sg19
g1
(g20
g3
NtRp2572
(dp2573
g23
I4
sg24
I3
sbsS'w'
I0
sbg1
(g2
g3
NtRp2574
(dp2575
g6
g2473
sg7
I-182
sg8
L3294L
sg9
g10
(g11
tRp2576
sg19
g44
sg46
g47
(g48
(I0
tS'b'
tRp2577
(I1
(L4L
L3L
tg51
I00
S'\x01\x01\x00\x00\x01\x01\x00\x01\x01\x01\x01\x00'
tbsg52
I-182
sbsg1
(g14
g3
NtRp2578
(dp2579
S'h'
I1
sg17
I0
sg18
I6
sg19
g1
(g20
g3
NtRp2580
(dp2581
g23
I4
sg24
I3
sbsS'w'
I0
sbg1
(g2
g3
NtRp2582
(dp2583
g6
g2473
sg7
I-181
sg8
L1470L
sg9
g10
(g11
tRp2584
sg19
g44
sg46
g47
(g48
(I0
tS'b'
tRp2585
(I1
(L4L
L3L
tg51
I00
S'\x00\x01\x00\x01\x01\x00\x01\x01\x01\x01\x01\x00'
tbsg52
I-181
sbsssg19
g44
sg46
g47
(g48
(I0
tS'b'
tRp2586
(I1
(L4L
L3L
tg51
I00
S'\x00\x00\x00\x00\x00\x00\x00\x01\x01\x01\x01\x00'
tbsg52
I-534
sbssI6
(dp2587
g1
(g14
g3
NtRp2588
(dp2589
S'h'
I0
sg17
I0
sg18
I6
sg19
g1
(g20
g3
NtRp2590
(dp2591
g23
I4
sg24
I3
sbsS'w'
I0
sbg1
(g2
g3
NtRp2592
(dp2593
g6
g4
sg7
I71
sg8
L180L
sg9
g10
(g11
tRp2594
I0
(dp2595
g1
(g14
g3
NtRp2596
(dp2597
S'h'
I0
sg17
I0
sg18
I0
sg19
g345
sS'w'
I2
sbg1
(g2
g3
NtRp2598
(dp2599
g6
g2592
sg7
I-163
sg8
L765L
sg9
g10
(g11
tRp2600
sg19
g44
sg46
g47
(g48
(I0
tS'b'
tRp2601
(I1
(L4L
L3L
tg51
I00
S'\x00\x00\x01\x00\x01\x01\x01\x01\x01\x01\x00\x01'
tbsg52
I-163
sbssI3
(dp2602
g1
(g14
g3
NtRp2603
(dp2604
S'h'
I2
sg17
I3
sg18
I3
sg19
g1
(g20
g3
NtRp2605
(dp2606
g23
I4
sg24
I3
sbsS'w'
I0
sbg1
(g2
g3
NtRp2607
(dp2608
g6
g2592
sg7
I-11
sg8
L3828L
sg9
g10
(g11
tRp2609
sg19
g44
sg46
g47
(g48
(I0
tS'b'
tRp2610
(I1
(L4L
L3L
tg51
I00
S'\x01\x01\x01\x00\x01\x01\x01\x01\x00\x01\x00\x00'
tbsg52
I-11
sbssI4
(dp2611
g1
(g14
g3
NtRp2612
(dp2613
S'h'
I2
sg17
I1
sg18
I4
sg19
g1
(g20
g3
NtRp2614
(dp2615
g23
I4
sg24
I3
sbsS'w'
I0
sbg1
(g2
g3
NtRp2616
(dp2617
g6
g2592
sg7
I71
sg8
L4020L
sg9
g10
(g11
tRp2618
sg19
g44
sg46
g47
(g48
(I0
tS'b'
tRp2619
(I1
(L4L
L3L
tg51
I00
S'\x01\x01\x01\x01\x01\x00\x01\x01\x00\x01\x00\x00'
tbsg52
I71
sbsg1
(g14
g3
NtRp2620
(dp2621
S'h'
I1
sg17
I0
sg18
I4
sg19
g1
(g20
g3
NtRp2622
(dp2623
g23
I4
sg24
I3
sbsS'w'
I1
sbg1
(g2
g3
NtRp2624
(dp2625
g6
g2592
sg7
I-90
sg8
L1788L
sg9
g10
(g11
tRp2626
sg19
g44
sg46
g47
(g48
(I0
tS'b'
tRp2627
(I1
(L4L
L3L
tg51
I00
S'\x00\x01\x01\x00\x01\x01\x01\x01\x01\x01\x00\x00'
tbsg52
I-90
sbsssg19
g44
sg46
g47
(g48
(I0
tS'b'
tRp2628
(I1
(L4L
L3L
tg51
I00
S'\x00\x00\x00\x00\x01\x00\x01\x01\x00\x01\x00\x00'
tbsg52
I-214
sbsg1
(g14
g3
NtRp2629
(dp2630
S'h'
I0
sg17
I0
sg18
I6
sg19
g1
(g20
g3
NtRp2631
(dp2632
g23
I4
sg24
I3
sbsS'w'
I1
sbg1
(g2
g3
NtRp2633
(dp2634
g6
g4
sg7
I61
sg8
L90L
sg9
g10
(g11
tRp2635
I0
(dp2636
g1
(g14
g3
NtRp2637
(dp2638
S'h'
I0
sg17
I0
sg18
I0
sg19
g168
sS'w'
I0
sbg1
(g2
g3
NtRp2639
(dp2640
g6
g2633
sg7
I-163
sg8
L2430L
sg9
g10
(g11
tRp2641
sg19
g44
sg46
g47
(g48
(I0
tS'b'
tRp2642
(I1
(L4L
L3L
tg51
I00
S'\x01\x00\x00\x01\x00\x01\x01\x01\x01\x01\x01\x00'
tbsg52
I-163
sbssI1
(dp2643
g1
(g14
g3
NtRp2644
(dp2645
S'h'
I2
sg17
I0
sg18
I1
sg19
g1
(g20
g3
NtRp2646
(dp2647
g23
I4
sg24
I3
sbsS'w'
I0
sbg1
(g2
g3
NtRp2648
(dp2649
g6
g2633
sg7
I-20
sg8
L3546L
sg9
g10
(g11
tRp2650
sg19
g44
sg46
g47
(g48
(I0
tS'b'
tRp2651
(I1
(L4L
L3L
tg51
I00
S'\x01\x01\x00\x01\x01\x01\x00\x01\x01\x00\x01\x00'
tbsg52
I-20
sbssI2
(dp2652
g1
(g14
g3
NtRp2653
(dp2654
S'h'
I2
sg17
I3
sg18
I2
sg19
g1
(g20
g3
NtRp2655
(dp2656
g23
I4
sg24
I3
sbsS'w'
I0
sbg1
(g2
g3
NtRp2657
(dp2658
g6
g2633
sg7
I61
sg8
L3802L
sg9
g10
(g11
tRp2659
sg19
g44
sg46
g47
(g48
(I0
tS'b'
tRp2660
(I1
(L4L
L3L
tg51
I00
S'\x01\x01\x01\x00\x01\x01\x00\x01\x01\x00\x01\x00'
tbsg52
I61
sbsg1
(g14
g3
NtRp2661
(dp2662
S'h'
I1
sg17
I0
sg18
I2
sg19
g1
(g20
g3
NtRp2663
(dp2664
g23
I4
sg24
I3
sbsS'w'
I0
sbg1
(g2
g3
NtRp2665
(dp2666
g6
g2633
sg7
I-91
sg8
L2554L
sg9
g10
(g11
tRp2667
sg19
g44
sg46
g47
(g48
(I0
tS'b'
tRp2668
(I1
(L4L
L3L
tg51
I00
S'\x01\x00\x00\x01\x01\x01\x01\x01\x01\x00\x01\x00'
tbsg52
I-91
sbssI3
(dp2669
g1
(g14
g3
NtRp2670
(dp2671
S'h'
I0
sg17
I0
sg18
I3
sg19
g1
(g20
g3
NtRp2672
(dp2673
g23
I4
sg24
I3
sbsS'w'
I0
sbg1
(g2
g3
NtRp2674
(dp2675
g6
g2633
sg7
I-170
sg8
L510L
sg9
g10
(g11
tRp2676
sg19
g44
sg46
g47
(g48
(I0
tS'b'
tRp2677
(I1
(L4L
L3L
tg51
I00
S'\x00\x00\x00\x01\x01\x01\x01\x01\x01\x01\x01\x00'
tbsg52
I-170
sbssI4
(dp2678
g1
(g14
g3
NtRp2679
(dp2680
S'h'
I2
sg17
I1
sg18
I4
sg19
g1
(g20
g3
NtRp2681
(dp2682
g23
I4
sg24
I3
sbsS'w'
I0
sbg1
(g2
g3
NtRp2683
(dp2684
g6
g2633
sg7
I-13
sg8
L3930L
sg9
g10
(g11
tRp2685
sg19
g44
sg46
g47
(g48
(I0
tS'b'
tRp2686
(I1
(L4L
L3L
tg51
I00
S'\x01\x01\x01\x01\x00\x01\x00\x01\x01\x00\x01\x00'
tbsg52
I-13
sbssI5
(dp2687
g1
(g14
g3
NtRp2688
(dp2689
S'h'
I2
sg17
I1
sg18
I5
sg19
g1
(g20
g3
NtRp2690
(dp2691
g23
I4
sg24
I3
sbsS'w'
I0
sbg1
(g2
g3
NtRp2692
(dp2693
g6
g2633
sg7
I-20
sg8
L2010L
sg9
g10
(g11
tRp2694
sg19
g44
sg46
g47
(g48
(I0
tS'b'
tRp2695
(I1
(L4L
L3L
tg51
I00
S'\x00\x01\x01\x01\x01\x01\x00\x01\x01\x00\x01\x00'
tbsg52
I-20
sbssI6
(dp2696
g1
(g14
g3
NtRp2697
(dp2698
S'h'
I1
sg17
I0
sg18
I6
sg19
g1
(g20
g3
NtRp2699
(dp2700
g23
I4
sg24
I3
sbsS'w'
I0
sbg1
(g2
g3
NtRp2701
(dp2702
g6
g2633
sg7
I-101
sg8
L1530L
sg9
g10
(g11
tRp2703
sg19
g44
sg46
g47
(g48
(I0
tS'b'
tRp2704
(I1
(L4L
L3L
tg51
I00
S'\x00\x01\x00\x01\x01\x01\x01\x01\x01\x00\x01\x00'
tbsg52
I-101
sbsssg19
g44
sg46
g47
(g48
(I0
tS'b'
tRp2705
(I1
(L4L
L3L
tg51
I00
S'\x00\x00\x00\x00\x00\x01\x00\x01\x01\x00\x01\x00'
tbsg52
I-214
sbsg1
(g14
g3
NtRp2706
(dp2707
S'h'
I0
sg17
I1
sg18
I6
sg19
g1
(g20
g3
NtRp2708
(dp2709
g23
I4
sg24
I3
sbsS'w'
I0
sbg1
(g2
g3
NtRp2710
(dp2711
g6
g4
sg7
I-170
sg8
L51L
sg9
g10
(g11
tRp2712
I1
(dp2713
g1
(g14
g3
NtRp2714
(dp2715
S'h'
I2
sg17
I0
sg18
I1
sg19
g1
(g20
g3
NtRp2716
(dp2717
g23
I4
sg24
I3
sbsS'w'
I0
sbg1
(g2
g3
NtRp2718
(dp2719
g6
g2710
sg7
I-180
sg8
L3507L
sg9
g10
(g11
tRp2720
sg19
g44
sg46
g47
(g48
(I0
tS'b'
tRp2721
(I1
(L4L
L3L
tg51
I00
S'\x01\x01\x00\x01\x01\x00\x01\x01\x00\x00\x01\x01'
tbsg52
I-180
sbsg1
(g14
g3
NtRp2722
(dp2723
S'h'
I2
sg17
I0
sg18
I1
sg19
g1
(g20
g3
NtRp2724
(dp2725
g23
I4
sg24
I3
sbsS'w'
I1
sbg1
(g2
g3
NtRp2726
(dp2727
g6
g2710
sg7
I-182
sg8
L1779L
sg9
g10
(g11
tRp2728
sg19
g44
sg46
g47
(g48
(I0
tS'b'
tRp2729
(I1
(L4L
L3L
tg51
I00
S'\x00\x01\x01\x00\x01\x01\x01\x01\x00\x00\x01\x01'
tbsg52
I-182
sbssI2
(dp2730
g1
(g14
g3
NtRp2731
(dp2732
S'h'
I2
sg17
I1
sg18
I2
sg19
g1
(g20
g3
NtRp2733
(dp2734
g23
I4
sg24
I3
sbsS'w'
I0
sbg1
(g2
g3
NtRp2735
(dp2736
g6
g2710
sg7
I-183
sg8
L1523L
sg9
g10
(g11
tRp2737
sg19
g44
sg46
g47
(g48
(I0
tS'b'
tRp2738
(I1
(L4L
L3L
tg51
I00
S'\x00\x01\x00\x01\x01\x01\x01\x01\x00\x00\x01\x01'
tbsg52
I-183
sbsg1
(g14
g3
NtRp2739
(dp2740
S'h'
I2
sg17
I3
sg18
I2
sg19
g1
(g20
g3
NtRp2741
(dp2742
g23
I4
sg24
I3
sbsS'w'
I0
sbg1
(g2
g3
NtRp2743
(dp2744
g6
g2710
sg7
I-183
sg8
L3763L
sg9
g10
(g11
tRp2745
sg19
g44
sg46
g47
(g48
(I0
tS'b'
tRp2746
(I1
(L4L
L3L
tg51
I00
S'\x01\x01\x01\x00\x01\x00\x01\x01\x00\x00\x01\x01'
tbsg52
I-183
sbsg1
(g14
g3
NtRp2747
(dp2748
S'h'
I1
sg17
I2
sg18
I2
sg19
g1
(g20
g3
NtRp2749
(dp2750
g23
I4
sg24
I3
sbsS'w'
I1
sbg1
(g2
g3
NtRp2751
(dp2752
g6
g2710
sg7
I-171
sg8
L763L
sg9
g10
(g11
tRp2753
sg19
g44
sg46
g47
(g48
(I0
tS'b'
tRp2754
(I1
(L4L
L3L
tg51
I00
S'\x00\x00\x01\x00\x01\x01\x01\x01\x01\x00\x01\x01'
tbsg52
I-171
sbssI3
(dp2755
g1
(g14
g3
NtRp2756
(dp2757
S'h'
I2
sg17
I1
sg18
I3
sg19
g1
(g20
g3
NtRp2758
(dp2759
g23
I4
sg24
I3
sbsS'w'
I0
sbg1
(g2
g3
NtRp2760
(dp2761
g6
g2710
sg7
I-173
sg8
L2547L
sg9
g10
(g11
tRp2762
sg19
g44
sg46
g47
(g48
(I0
tS'b'
tRp2763
(I1
(L4L
L3L
tg51
I00
S'\x01\x00\x00\x01\x01\x01\x01\x01\x00\x00\x01\x01'
tbsg52
I-173
sbsg1
(g14
g3
NtRp2764
(dp2765
S'h'
I1
sg17
I3
sg18
I3
sg19
g1
(g20
g3
NtRp2766
(dp2767
g23
I4
sg24
I3
sbsS'w'
I0
sbg1
(g2
g3
NtRp2768
(dp2769
g6
g2710
sg7
I-170
sg8
L507L
sg9
g10
(g11
tRp2770
sg19
g44
sg46
g47
(g48
(I0
tS'b'
tRp2771
(I1
(L4L
L3L
tg51
I00
S'\x00\x00\x00\x01\x01\x01\x01\x01\x01\x00\x01\x01'
tbsg52
I-170
sbssI4
(dp2772
g1
(g14
g3
NtRp2773
(dp2774
S'h'
I2
sg17
I1
sg18
I4
sg19
g1
(g20
g3
NtRp2775
(dp2776
g23
I4
sg24
I3
sbsS'w'
I0
sbg1
(g2
g3
NtRp2777
(dp2778
g6
g2710
sg7
I-173
sg8
L3891L
sg9
g10
(g11
tRp2779
sg19
g44
sg46
g47
(g48
(I0
tS'b'
tRp2780
(I1
(L4L
L3L
tg51
I00
S'\x01\x01\x01\x01\x00\x00\x01\x01\x00\x00\x01\x01'
tbsg52
I-173
sbsg1
(g14
g3
NtRp2781
(dp2782
S'h'
I2
sg17
I3
sg18
I4
sg19
g1
(g20
g3
NtRp2783
(dp2784
g23
I4
sg24
I3
sbsS'w'
I0
sbg1
(g2
g3
NtRp2785
(dp2786
g6
g2710
sg7
I-173
sg8
L1011L
sg9
g10
(g11
tRp2787
sg19
g44
sg46
g47
(g48
(I0
tS'b'
tRp2788
(I1
(L4L
L3L
tg51
I00
S'\x00\x00\x01\x01\x01\x01\x01\x01\x00\x00\x01\x01'
tbsg52
I-173
sbsg1
(g14
g3
NtRp2789
(dp2790
S'h'
I1
sg17
I0
sg18
I4
sg19
g1
(g20
g3
NtRp2791
(dp2792
g23
I4
sg24
I3
sbsS'w'
I1
sbg1
(g2
g3
NtRp2793
(dp2794
g6
g2710
sg7
I-172
sg8
L1659L
sg9
g10
(g11
tRp2795
sg19
g44
sg46
g47
(g48
(I0
tS'b'
tRp2796
(I1
(L4L
L3L
tg51
I00
S'\x00\x01\x01\x00\x00\x01\x01\x01\x01\x00\x01\x01'
tbsg52
I-172
sbssI5
(dp2797
g1
(g14
g3
NtRp2798
(dp2799
S'h'
I2
sg17
I1
sg18
I5
sg19
g1
(g20
g3
NtRp2800
(dp2801
g23
I4
sg24
I3
sbsS'w'
I0
sbg1
(g2
g3
NtRp2802
(dp2803
g6
g2710
sg7
I-182
sg8
L1971L
sg9
g10
(g11
tRp2804
sg19
g44
sg46
g47
(g48
(I0
tS'b'
tRp2805
(I1
(L4L
L3L
tg51
I00
S'\x00\x01\x01\x01\x01\x00\x01\x01\x00\x00\x01\x01'
tbsg52
I-182
sbsg1
(g14
g3
NtRp2806
(dp2807
S'h'
I1
sg17
I0
sg18
I5
sg19
g1
(g20
g3
NtRp2808
(dp2809
g23
I4
sg24
I3
sbsS'w'
I1
sbg1
(g2
g3
NtRp2810
(dp2811
g6
g2710
sg7
I-181
sg8
L1275L
sg9
g10
(g11
tRp2812
sg19
g44
sg46
g47
(g48
(I0
tS'b'
tRp2813
(I1
(L4L
L3L
tg51
I00
S'\x00\x01\x00\x00\x01\x01\x01\x01\x01\x00\x01\x01'
tbsg52
I-181
sbssI6
(dp2814
g1
(g14
g3
NtRp2815
(dp2816
S'h'
I2
sg17
I1
sg18
I6
sg19
g1
(g20
g3
NtRp2817
(dp2818
g23
I4
sg24
I3
sbsS'w'
I0
sbg1
(g2
g3
NtRp2819
(dp2820
g6
g2710
sg7
I-184
sg8
L3315L
sg9
g10
(g11
tRp2821
sg19
g44
sg46
g47
(g48
(I0
tS'b'
tRp2822
(I1
(L4L
L3L
tg51
I00
S'\x01\x01\x00\x00\x01\x01\x01\x01\x00\x00\x01\x01'
tbsg52
I-184
sbsssg19
g44
sg46
g47
(g48
(I0
tS'b'
tRp2823
(I1
(L4L
L3L
tg51
I00
S'\x00\x00\x00\x00\x00\x00\x01\x01\x00\x00\x01\x01'
tbsg52
I-534
sbsssg19
g44
sg46
g47
(g48
(I0
tS'b'
tRp2824
(I1
(L4L
L3L
tg51
I00
S'\x00\x00\x00\x00\x00\x00\x00\x00\x00\x00\x00\x00'
tbsg52
Finf
sb.